; ModuleID = 'main.cpp'
source_filename = "main.cpp"
target datalayout = "e-m:o-p270:32:32-p271:32:32-p272:64:64-i64:64-f80:128-n8:16:32:64-S128"
target triple = "x86_64-apple-macosx12.0.0"

%struct.__loadu_si128 = type { <2 x i64> }
%struct.__storeu_si128 = type { <2 x i64> }

@.str = private unnamed_addr constant [22 x i8] c"Naive Sum dt: %Lf ms\0A\00", align 1
@.str.1 = private unnamed_addr constant [25 x i8] c"Unrolled Sum dt: %Lf ms\0A\00", align 1
@_ZZ13sum_naive_ssePimE7ans_vec = internal global <2 x i64> zeroinitializer, align 16, !dbg !0
@_ZGVZ13sum_naive_ssePimE7ans_vec = internal global i64 0, align 8
@_ZZ13sum_naive_ssePimE1b = internal global <2 x i64> zeroinitializer, align 16, !dbg !40
@_ZGVZ13sum_naive_ssePimE1b = internal global i64 0, align 8
@.str.2 = private unnamed_addr constant [20 x i8] c"SSE Sum dt: %Lf ms\0A\00", align 1
@.str.3 = private unnamed_addr constant [29 x i8] c"Unrolled SSE Sum dt: %Lf ms\0A\00", align 1

; Function Attrs: mustprogress noinline optnone ssp uwtable
define noundef i32 @_Z9sum_naivePim(i32* noundef %0, i64 noundef %1) #0 !dbg !1305 {
  %3 = alloca i32*, align 8
  %4 = alloca i64, align 8
  %5 = alloca i64, align 8
  %6 = alloca i32, align 4
  %7 = alloca i64, align 8
  %8 = alloca i64, align 8
  store i32* %0, i32** %3, align 8
  call void @llvm.dbg.declare(metadata i32** %3, metadata !1306, metadata !DIExpression()), !dbg !1307
  store i64 %1, i64* %4, align 8
  call void @llvm.dbg.declare(metadata i64* %4, metadata !1308, metadata !DIExpression()), !dbg !1309
  call void @llvm.dbg.declare(metadata i64* %5, metadata !1310, metadata !DIExpression()), !dbg !1311
  %9 = call i64 @"\01_clock"(), !dbg !1312
  store i64 %9, i64* %5, align 8, !dbg !1311
  call void @llvm.dbg.declare(metadata i32* %6, metadata !1313, metadata !DIExpression()), !dbg !1314
  store i32 0, i32* %6, align 4, !dbg !1314
  call void @llvm.dbg.declare(metadata i64* %7, metadata !1315, metadata !DIExpression()), !dbg !1317
  store i64 0, i64* %7, align 8, !dbg !1317
  br label %10, !dbg !1318

10:                                               ; preds = %21, %2
  %11 = load i64, i64* %7, align 8, !dbg !1319
  %12 = load i64, i64* %4, align 8, !dbg !1321
  %13 = icmp ult i64 %11, %12, !dbg !1322
  br i1 %13, label %14, label %24, !dbg !1323

14:                                               ; preds = %10
  %15 = load i32*, i32** %3, align 8, !dbg !1324
  %16 = load i64, i64* %7, align 8, !dbg !1325
  %17 = getelementptr inbounds i32, i32* %15, i64 %16, !dbg !1324
  %18 = load i32, i32* %17, align 4, !dbg !1324
  %19 = load i32, i32* %6, align 4, !dbg !1326
  %20 = add nsw i32 %19, %18, !dbg !1326
  store i32 %20, i32* %6, align 4, !dbg !1326
  br label %21, !dbg !1327

21:                                               ; preds = %14
  %22 = load i64, i64* %7, align 8, !dbg !1328
  %23 = add i64 %22, 1, !dbg !1328
  store i64 %23, i64* %7, align 8, !dbg !1328
  br label %10, !dbg !1329, !llvm.loop !1330

24:                                               ; preds = %10
  call void @llvm.dbg.declare(metadata i64* %8, metadata !1333, metadata !DIExpression()), !dbg !1334
  %25 = call i64 @"\01_clock"(), !dbg !1335
  store i64 %25, i64* %8, align 8, !dbg !1334
  %26 = load i64, i64* %8, align 8, !dbg !1336
  %27 = load i64, i64* %5, align 8, !dbg !1337
  %28 = sub i64 %26, %27, !dbg !1338
  %29 = uitofp i64 %28 to x86_fp80, !dbg !1339
  %30 = fmul x86_fp80 %29, 0xK4008FA00000000000000, !dbg !1340
  %31 = fdiv x86_fp80 %30, 0xK4012F424000000000000, !dbg !1341
  %32 = call i32 (i8*, ...) @printf(i8* noundef getelementptr inbounds ([22 x i8], [22 x i8]* @.str, i64 0, i64 0), x86_fp80 noundef %31), !dbg !1342
  %33 = load i32, i32* %6, align 4, !dbg !1343
  ret i32 %33, !dbg !1344
}

; Function Attrs: nofree nosync nounwind readnone speculatable willreturn
declare void @llvm.dbg.declare(metadata, metadata, metadata) #1

declare i64 @"\01_clock"() #2

declare i32 @printf(i8* noundef, ...) #2

; Function Attrs: mustprogress noinline optnone ssp uwtable
define noundef i32 @_Z12sum_unrolledPim(i32* noundef %0, i64 noundef %1) #0 !dbg !1345 {
  %3 = alloca i32*, align 8
  %4 = alloca i64, align 8
  %5 = alloca i64, align 8
  %6 = alloca i32, align 4
  %7 = alloca i64, align 8
  %8 = alloca i64, align 8
  store i32* %0, i32** %3, align 8
  call void @llvm.dbg.declare(metadata i32** %3, metadata !1346, metadata !DIExpression()), !dbg !1347
  store i64 %1, i64* %4, align 8
  call void @llvm.dbg.declare(metadata i64* %4, metadata !1348, metadata !DIExpression()), !dbg !1349
  call void @llvm.dbg.declare(metadata i64* %5, metadata !1350, metadata !DIExpression()), !dbg !1351
  %9 = call i64 @"\01_clock"(), !dbg !1352
  store i64 %9, i64* %5, align 8, !dbg !1351
  call void @llvm.dbg.declare(metadata i32* %6, metadata !1353, metadata !DIExpression()), !dbg !1354
  store i32 0, i32* %6, align 4, !dbg !1354
  call void @llvm.dbg.declare(metadata i64* %7, metadata !1355, metadata !DIExpression()), !dbg !1356
  store i64 0, i64* %7, align 8, !dbg !1356
  br label %10, !dbg !1357

10:                                               ; preds = %44, %2
  %11 = load i64, i64* %7, align 8, !dbg !1358
  %12 = load i64, i64* %4, align 8, !dbg !1361
  %13 = udiv i64 %12, 4, !dbg !1362
  %14 = mul i64 %13, 4, !dbg !1363
  %15 = icmp ult i64 %11, %14, !dbg !1364
  br i1 %15, label %16, label %47, !dbg !1365

16:                                               ; preds = %10
  %17 = load i32*, i32** %3, align 8, !dbg !1366
  %18 = load i64, i64* %7, align 8, !dbg !1368
  %19 = getelementptr inbounds i32, i32* %17, i64 %18, !dbg !1366
  %20 = load i32, i32* %19, align 4, !dbg !1366
  %21 = load i32, i32* %6, align 4, !dbg !1369
  %22 = add nsw i32 %21, %20, !dbg !1369
  store i32 %22, i32* %6, align 4, !dbg !1369
  %23 = load i32*, i32** %3, align 8, !dbg !1370
  %24 = load i64, i64* %7, align 8, !dbg !1371
  %25 = add i64 %24, 1, !dbg !1372
  %26 = getelementptr inbounds i32, i32* %23, i64 %25, !dbg !1370
  %27 = load i32, i32* %26, align 4, !dbg !1370
  %28 = load i32, i32* %6, align 4, !dbg !1373
  %29 = add nsw i32 %28, %27, !dbg !1373
  store i32 %29, i32* %6, align 4, !dbg !1373
  %30 = load i32*, i32** %3, align 8, !dbg !1374
  %31 = load i64, i64* %7, align 8, !dbg !1375
  %32 = add i64 %31, 2, !dbg !1376
  %33 = getelementptr inbounds i32, i32* %30, i64 %32, !dbg !1374
  %34 = load i32, i32* %33, align 4, !dbg !1374
  %35 = load i32, i32* %6, align 4, !dbg !1377
  %36 = add nsw i32 %35, %34, !dbg !1377
  store i32 %36, i32* %6, align 4, !dbg !1377
  %37 = load i32*, i32** %3, align 8, !dbg !1378
  %38 = load i64, i64* %7, align 8, !dbg !1379
  %39 = add i64 %38, 3, !dbg !1380
  %40 = getelementptr inbounds i32, i32* %37, i64 %39, !dbg !1378
  %41 = load i32, i32* %40, align 4, !dbg !1378
  %42 = load i32, i32* %6, align 4, !dbg !1381
  %43 = add nsw i32 %42, %41, !dbg !1381
  store i32 %43, i32* %6, align 4, !dbg !1381
  br label %44, !dbg !1382

44:                                               ; preds = %16
  %45 = load i64, i64* %7, align 8, !dbg !1383
  %46 = add i64 %45, 4, !dbg !1383
  store i64 %46, i64* %7, align 8, !dbg !1383
  br label %10, !dbg !1384, !llvm.loop !1385

47:                                               ; preds = %10
  br label %48, !dbg !1387

48:                                               ; preds = %52, %47
  %49 = load i64, i64* %7, align 8, !dbg !1388
  %50 = load i64, i64* %4, align 8, !dbg !1389
  %51 = icmp ult i64 %49, %50, !dbg !1390
  br i1 %51, label %52, label %60, !dbg !1387

52:                                               ; preds = %48
  %53 = load i32*, i32** %3, align 8, !dbg !1391
  %54 = load i64, i64* %7, align 8, !dbg !1392
  %55 = add i64 %54, 1, !dbg !1392
  store i64 %55, i64* %7, align 8, !dbg !1392
  %56 = getelementptr inbounds i32, i32* %53, i64 %54, !dbg !1391
  %57 = load i32, i32* %56, align 4, !dbg !1391
  %58 = load i32, i32* %6, align 4, !dbg !1393
  %59 = add nsw i32 %58, %57, !dbg !1393
  store i32 %59, i32* %6, align 4, !dbg !1393
  br label %48, !dbg !1387, !llvm.loop !1394

60:                                               ; preds = %48
  call void @llvm.dbg.declare(metadata i64* %8, metadata !1396, metadata !DIExpression()), !dbg !1397
  %61 = call i64 @"\01_clock"(), !dbg !1398
  store i64 %61, i64* %8, align 8, !dbg !1397
  %62 = load i64, i64* %8, align 8, !dbg !1399
  %63 = load i64, i64* %5, align 8, !dbg !1400
  %64 = sub i64 %62, %63, !dbg !1401
  %65 = uitofp i64 %64 to x86_fp80, !dbg !1402
  %66 = fmul x86_fp80 %65, 0xK4008FA00000000000000, !dbg !1403
  %67 = fdiv x86_fp80 %66, 0xK4012F424000000000000, !dbg !1404
  %68 = call i32 (i8*, ...) @printf(i8* noundef getelementptr inbounds ([25 x i8], [25 x i8]* @.str.1, i64 0, i64 0), x86_fp80 noundef %67), !dbg !1405
  %69 = load i32, i32* %6, align 4, !dbg !1406
  ret i32 %69, !dbg !1407
}

; Function Attrs: mustprogress noinline optnone ssp uwtable
define noundef i32 @_Z13sum_naive_ssePim(i32* noundef %0, i64 noundef %1) #3 personality i8* bitcast (i32 (...)* @__gxx_personality_v0 to i8*) !dbg !2 {
  %3 = alloca <2 x i64>*, align 8
  %4 = alloca <2 x i64>, align 16
  %5 = alloca <2 x i64>, align 16
  %6 = alloca <2 x i64>, align 16
  %7 = alloca <2 x i64>*, align 8
  %8 = alloca <2 x i64>, align 16
  %9 = alloca i32*, align 8
  %10 = alloca i64, align 8
  %11 = alloca i64, align 8
  %12 = alloca i8*, align 8
  %13 = alloca i32, align 4
  %14 = alloca i64, align 8
  %15 = alloca [4 x i32], align 16
  %16 = alloca i32, align 4
  %17 = alloca i64, align 8
  store i32* %0, i32** %9, align 8
  call void @llvm.dbg.declare(metadata i32** %9, metadata !1408, metadata !DIExpression()), !dbg !1409
  store i64 %1, i64* %10, align 8
  call void @llvm.dbg.declare(metadata i64* %10, metadata !1410, metadata !DIExpression()), !dbg !1411
  call void @llvm.dbg.declare(metadata i64* %11, metadata !1412, metadata !DIExpression()), !dbg !1413
  %18 = call i64 @"\01_clock"(), !dbg !1414
  store i64 %18, i64* %11, align 8, !dbg !1413
  %19 = load atomic i8, i8* bitcast (i64* @_ZGVZ13sum_naive_ssePimE7ans_vec to i8*) acquire, align 8, !dbg !1415
  %20 = icmp eq i8 %19, 0, !dbg !1415
  br i1 %20, label %21, label %27, !dbg !1415, !prof !1416

21:                                               ; preds = %2
  %22 = call i32 @__cxa_guard_acquire(i64* @_ZGVZ13sum_naive_ssePimE7ans_vec) #4, !dbg !1415
  %23 = icmp ne i32 %22, 0, !dbg !1415
  br i1 %23, label %24, label %27, !dbg !1415

24:                                               ; preds = %21
  store <2 x i64> zeroinitializer, <2 x i64>* %8, align 16, !dbg !1417
  %25 = load <2 x i64>, <2 x i64>* %8, align 16, !dbg !1417
  br label %26, !dbg !1417

26:                                               ; preds = %24
  store <2 x i64> %25, <2 x i64>* @_ZZ13sum_naive_ssePimE7ans_vec, align 16, !dbg !1415
  call void @__cxa_guard_release(i64* @_ZGVZ13sum_naive_ssePimE7ans_vec) #4, !dbg !1415
  br label %27, !dbg !1415

27:                                               ; preds = %26, %21, %2
  call void @llvm.dbg.declare(metadata i64* %14, metadata !1418, metadata !DIExpression()), !dbg !1419
  store i64 0, i64* %14, align 8, !dbg !1419
  br label %28, !dbg !1420

28:                                               ; preds = %59, %27
  %29 = load i64, i64* %14, align 8, !dbg !1421
  %30 = load i64, i64* %10, align 8, !dbg !1424
  %31 = udiv i64 %30, 4, !dbg !1425
  %32 = mul i64 %31, 4, !dbg !1426
  %33 = icmp ult i64 %29, %32, !dbg !1427
  br i1 %33, label %34, label %70, !dbg !1428

34:                                               ; preds = %28
  %35 = load atomic i8, i8* bitcast (i64* @_ZGVZ13sum_naive_ssePimE1b to i8*) acquire, align 8, !dbg !1429
  %36 = icmp eq i8 %35, 0, !dbg !1429
  br i1 %36, label %37, label %50, !dbg !1429, !prof !1416

37:                                               ; preds = %34
  %38 = call i32 @__cxa_guard_acquire(i64* @_ZGVZ13sum_naive_ssePimE1b) #4, !dbg !1429
  %39 = icmp ne i32 %38, 0, !dbg !1429
  br i1 %39, label %40, label %50, !dbg !1429

40:                                               ; preds = %37
  %41 = load i32*, i32** %9, align 8, !dbg !1431
  %42 = load i64, i64* %14, align 8, !dbg !1432
  %43 = getelementptr inbounds i32, i32* %41, i64 %42, !dbg !1433
  %44 = bitcast i32* %43 to <2 x i64>*, !dbg !1434
  store <2 x i64>* %44, <2 x i64>** %7, align 8, !dbg !1435
  %45 = load <2 x i64>*, <2 x i64>** %7, align 8, !dbg !1435
  %46 = bitcast <2 x i64>* %45 to %struct.__loadu_si128*, !dbg !1435
  %47 = getelementptr inbounds %struct.__loadu_si128, %struct.__loadu_si128* %46, i32 0, i32 0, !dbg !1435
  %48 = load <2 x i64>, <2 x i64>* %47, align 1, !dbg !1435
  br label %49, !dbg !1435

49:                                               ; preds = %40
  store <2 x i64> %48, <2 x i64>* @_ZZ13sum_naive_ssePimE1b, align 16, !dbg !1429
  call void @__cxa_guard_release(i64* @_ZGVZ13sum_naive_ssePimE1b) #4, !dbg !1429
  br label %50, !dbg !1429

50:                                               ; preds = %49, %37, %34
  %51 = load <2 x i64>, <2 x i64>* @_ZZ13sum_naive_ssePimE7ans_vec, align 16, !dbg !1436
  %52 = load <2 x i64>, <2 x i64>* @_ZZ13sum_naive_ssePimE1b, align 16, !dbg !1437
  store <2 x i64> %51, <2 x i64>* %5, align 16, !dbg !1438
  store <2 x i64> %52, <2 x i64>* %6, align 16, !dbg !1438
  %53 = load <2 x i64>, <2 x i64>* %5, align 16, !dbg !1438
  %54 = bitcast <2 x i64> %53 to <4 x i32>, !dbg !1438
  %55 = load <2 x i64>, <2 x i64>* %6, align 16, !dbg !1438
  %56 = bitcast <2 x i64> %55 to <4 x i32>, !dbg !1438
  %57 = add <4 x i32> %54, %56, !dbg !1438
  %58 = bitcast <4 x i32> %57 to <2 x i64>, !dbg !1438
  store <2 x i64> %58, <2 x i64>* @_ZZ13sum_naive_ssePimE7ans_vec, align 16, !dbg !1439
  br label %59, !dbg !1440

59:                                               ; preds = %50
  %60 = load i64, i64* %14, align 8, !dbg !1441
  %61 = add i64 %60, 4, !dbg !1441
  store i64 %61, i64* %14, align 8, !dbg !1441
  br label %28, !dbg !1442, !llvm.loop !1443

62:                                               ; No predecessors!
  %63 = landingpad { i8*, i32 }
          cleanup, !dbg !1445
  %64 = extractvalue { i8*, i32 } %63, 0, !dbg !1445
  store i8* %64, i8** %12, align 8, !dbg !1445
  %65 = extractvalue { i8*, i32 } %63, 1, !dbg !1445
  store i32 %65, i32* %13, align 4, !dbg !1445
  call void @__cxa_guard_abort(i64* @_ZGVZ13sum_naive_ssePimE7ans_vec) #4, !dbg !1415
  br label %114, !dbg !1415

66:                                               ; No predecessors!
  %67 = landingpad { i8*, i32 }
          cleanup, !dbg !1446
  %68 = extractvalue { i8*, i32 } %67, 0, !dbg !1446
  store i8* %68, i8** %12, align 8, !dbg !1446
  %69 = extractvalue { i8*, i32 } %67, 1, !dbg !1446
  store i32 %69, i32* %13, align 4, !dbg !1446
  call void @__cxa_guard_abort(i64* @_ZGVZ13sum_naive_ssePimE1b) #4, !dbg !1429
  br label %114, !dbg !1429

70:                                               ; preds = %28
  call void @llvm.dbg.declare(metadata [4 x i32]* %15, metadata !1447, metadata !DIExpression()), !dbg !1449
  %71 = bitcast [4 x i32]* %15 to i8*, !dbg !1449
  call void @llvm.memset.p0i8.i64(i8* align 16 %71, i8 0, i64 16, i1 false), !dbg !1449
  %72 = getelementptr inbounds [4 x i32], [4 x i32]* %15, i64 0, i64 0, !dbg !1450
  %73 = bitcast i32* %72 to <2 x i64>*, !dbg !1451
  %74 = load <2 x i64>, <2 x i64>* @_ZZ13sum_naive_ssePimE7ans_vec, align 16, !dbg !1452
  store <2 x i64>* %73, <2 x i64>** %3, align 8, !dbg !1453
  store <2 x i64> %74, <2 x i64>* %4, align 16, !dbg !1453
  %75 = load <2 x i64>, <2 x i64>* %4, align 16, !dbg !1453
  %76 = load <2 x i64>*, <2 x i64>** %3, align 8, !dbg !1453
  %77 = bitcast <2 x i64>* %76 to %struct.__storeu_si128*, !dbg !1453
  %78 = getelementptr inbounds %struct.__storeu_si128, %struct.__storeu_si128* %77, i32 0, i32 0, !dbg !1453
  store <2 x i64> %75, <2 x i64>* %78, align 1, !dbg !1453
  call void @llvm.dbg.declare(metadata i32* %16, metadata !1454, metadata !DIExpression()), !dbg !1455
  store i32 0, i32* %16, align 4, !dbg !1455
  %79 = getelementptr inbounds [4 x i32], [4 x i32]* %15, i64 0, i64 0, !dbg !1456
  %80 = load i32, i32* %79, align 16, !dbg !1456
  %81 = getelementptr inbounds [4 x i32], [4 x i32]* %15, i64 0, i64 1, !dbg !1457
  %82 = load i32, i32* %81, align 4, !dbg !1457
  %83 = add nsw i32 %80, %82, !dbg !1458
  %84 = getelementptr inbounds [4 x i32], [4 x i32]* %15, i64 0, i64 2, !dbg !1459
  %85 = load i32, i32* %84, align 8, !dbg !1459
  %86 = add nsw i32 %83, %85, !dbg !1460
  %87 = getelementptr inbounds [4 x i32], [4 x i32]* %15, i64 0, i64 3, !dbg !1461
  %88 = load i32, i32* %87, align 4, !dbg !1461
  %89 = add nsw i32 %86, %88, !dbg !1462
  %90 = load i32, i32* %16, align 4, !dbg !1463
  %91 = add nsw i32 %90, %89, !dbg !1463
  store i32 %91, i32* %16, align 4, !dbg !1463
  br label %92, !dbg !1464

92:                                               ; preds = %96, %70
  %93 = load i64, i64* %14, align 8, !dbg !1465
  %94 = load i64, i64* %10, align 8, !dbg !1466
  %95 = icmp ult i64 %93, %94, !dbg !1467
  br i1 %95, label %96, label %104, !dbg !1464

96:                                               ; preds = %92
  %97 = load i32*, i32** %9, align 8, !dbg !1468
  %98 = load i64, i64* %14, align 8, !dbg !1469
  %99 = add i64 %98, 1, !dbg !1469
  store i64 %99, i64* %14, align 8, !dbg !1469
  %100 = getelementptr inbounds i32, i32* %97, i64 %98, !dbg !1468
  %101 = load i32, i32* %100, align 4, !dbg !1468
  %102 = load i32, i32* %16, align 4, !dbg !1470
  %103 = add nsw i32 %102, %101, !dbg !1470
  store i32 %103, i32* %16, align 4, !dbg !1470
  br label %92, !dbg !1464, !llvm.loop !1471

104:                                              ; preds = %92
  call void @llvm.dbg.declare(metadata i64* %17, metadata !1473, metadata !DIExpression()), !dbg !1474
  %105 = call i64 @"\01_clock"(), !dbg !1475
  store i64 %105, i64* %17, align 8, !dbg !1474
  %106 = load i64, i64* %17, align 8, !dbg !1476
  %107 = load i64, i64* %11, align 8, !dbg !1477
  %108 = sub i64 %106, %107, !dbg !1478
  %109 = uitofp i64 %108 to x86_fp80, !dbg !1479
  %110 = fmul x86_fp80 %109, 0xK4008FA00000000000000, !dbg !1480
  %111 = fdiv x86_fp80 %110, 0xK4012F424000000000000, !dbg !1481
  %112 = call i32 (i8*, ...) @printf(i8* noundef getelementptr inbounds ([20 x i8], [20 x i8]* @.str.2, i64 0, i64 0), x86_fp80 noundef %111), !dbg !1482
  %113 = load i32, i32* %16, align 4, !dbg !1483
  ret i32 %113, !dbg !1484

114:                                              ; preds = %66, %62
  %115 = load i8*, i8** %12, align 8, !dbg !1415
  %116 = load i32, i32* %13, align 4, !dbg !1415
  %117 = insertvalue { i8*, i32 } undef, i8* %115, 0, !dbg !1415
  %118 = insertvalue { i8*, i32 } %117, i32 %116, 1, !dbg !1415
  resume { i8*, i32 } %118, !dbg !1415
}

; Function Attrs: nounwind
declare i32 @__cxa_guard_acquire(i64*) #4

declare i32 @__gxx_personality_v0(...)

; Function Attrs: nounwind
declare void @__cxa_guard_abort(i64*) #4

; Function Attrs: nounwind
declare void @__cxa_guard_release(i64*) #4

; Function Attrs: argmemonly nofree nounwind willreturn writeonly
declare void @llvm.memset.p0i8.i64(i8* nocapture writeonly, i8, i64, i1 immarg) #5

; Function Attrs: mustprogress noinline optnone ssp uwtable
define noundef i32 @_Z16sum_unrolled_ssePim(i32* noundef %0, i64 noundef %1) #3 !dbg !1485 {
  %3 = alloca <2 x i64>*, align 8
  %4 = alloca <2 x i64>, align 16
  %5 = alloca <2 x i64>, align 16
  %6 = alloca <2 x i64>, align 16
  %7 = alloca <2 x i64>, align 16
  %8 = alloca <2 x i64>, align 16
  %9 = alloca <2 x i64>, align 16
  %10 = alloca <2 x i64>, align 16
  %11 = alloca <2 x i64>, align 16
  %12 = alloca <2 x i64>, align 16
  %13 = alloca <2 x i64>*, align 8
  %14 = alloca <2 x i64>*, align 8
  %15 = alloca <2 x i64>*, align 8
  %16 = alloca <2 x i64>*, align 8
  %17 = alloca <2 x i64>, align 16
  %18 = alloca i32*, align 8
  %19 = alloca i64, align 8
  %20 = alloca i64, align 8
  %21 = alloca <2 x i64>, align 16
  %22 = alloca i64, align 8
  %23 = alloca <2 x i64>, align 16
  %24 = alloca [4 x i32], align 16
  %25 = alloca i32, align 4
  %26 = alloca i64, align 8
  store i32* %0, i32** %18, align 8
  call void @llvm.dbg.declare(metadata i32** %18, metadata !1486, metadata !DIExpression()), !dbg !1487
  store i64 %1, i64* %19, align 8
  call void @llvm.dbg.declare(metadata i64* %19, metadata !1488, metadata !DIExpression()), !dbg !1489
  call void @llvm.dbg.declare(metadata i64* %20, metadata !1490, metadata !DIExpression()), !dbg !1491
  %27 = call i64 @"\01_clock"(), !dbg !1492
  store i64 %27, i64* %20, align 8, !dbg !1491
  call void @llvm.dbg.declare(metadata <2 x i64>* %21, metadata !1493, metadata !DIExpression()), !dbg !1494
  store <2 x i64> zeroinitializer, <2 x i64>* %17, align 16, !dbg !1495
  %28 = load <2 x i64>, <2 x i64>* %17, align 16, !dbg !1495
  store <2 x i64> %28, <2 x i64>* %21, align 16, !dbg !1494
  call void @llvm.dbg.declare(metadata i64* %22, metadata !1496, metadata !DIExpression()), !dbg !1497
  store i64 0, i64* %22, align 8, !dbg !1497
  br label %29, !dbg !1498

29:                                               ; preds = %103, %2
  %30 = load i64, i64* %22, align 8, !dbg !1499
  %31 = load i64, i64* %19, align 8, !dbg !1502
  %32 = udiv i64 %31, 16, !dbg !1503
  %33 = mul i64 %32, 16, !dbg !1504
  %34 = icmp ult i64 %30, %33, !dbg !1505
  br i1 %34, label %35, label %106, !dbg !1506

35:                                               ; preds = %29
  call void @llvm.dbg.declare(metadata <2 x i64>* %23, metadata !1507, metadata !DIExpression()), !dbg !1509
  %36 = load i32*, i32** %18, align 8, !dbg !1510
  %37 = load i64, i64* %22, align 8, !dbg !1511
  %38 = getelementptr inbounds i32, i32* %36, i64 %37, !dbg !1512
  %39 = bitcast i32* %38 to <2 x i64>*, !dbg !1513
  store <2 x i64>* %39, <2 x i64>** %13, align 8, !dbg !1514
  %40 = load <2 x i64>*, <2 x i64>** %13, align 8, !dbg !1514
  %41 = bitcast <2 x i64>* %40 to %struct.__loadu_si128*, !dbg !1514
  %42 = getelementptr inbounds %struct.__loadu_si128, %struct.__loadu_si128* %41, i32 0, i32 0, !dbg !1514
  %43 = load <2 x i64>, <2 x i64>* %42, align 1, !dbg !1514
  store <2 x i64> %43, <2 x i64>* %23, align 16, !dbg !1509
  %44 = load <2 x i64>, <2 x i64>* %21, align 16, !dbg !1515
  %45 = load <2 x i64>, <2 x i64>* %23, align 16, !dbg !1516
  store <2 x i64> %44, <2 x i64>* %5, align 16, !dbg !1517
  store <2 x i64> %45, <2 x i64>* %6, align 16, !dbg !1517
  %46 = load <2 x i64>, <2 x i64>* %5, align 16, !dbg !1517
  %47 = bitcast <2 x i64> %46 to <4 x i32>, !dbg !1517
  %48 = load <2 x i64>, <2 x i64>* %6, align 16, !dbg !1517
  %49 = bitcast <2 x i64> %48 to <4 x i32>, !dbg !1517
  %50 = add <4 x i32> %47, %49, !dbg !1517
  %51 = bitcast <4 x i32> %50 to <2 x i64>, !dbg !1517
  store <2 x i64> %51, <2 x i64>* %21, align 16, !dbg !1518
  %52 = load i32*, i32** %18, align 8, !dbg !1519
  %53 = load i64, i64* %22, align 8, !dbg !1520
  %54 = getelementptr inbounds i32, i32* %52, i64 %53, !dbg !1521
  %55 = getelementptr inbounds i32, i32* %54, i64 4, !dbg !1522
  %56 = bitcast i32* %55 to <2 x i64>*, !dbg !1523
  store <2 x i64>* %56, <2 x i64>** %14, align 8, !dbg !1524
  %57 = load <2 x i64>*, <2 x i64>** %14, align 8, !dbg !1524
  %58 = bitcast <2 x i64>* %57 to %struct.__loadu_si128*, !dbg !1524
  %59 = getelementptr inbounds %struct.__loadu_si128, %struct.__loadu_si128* %58, i32 0, i32 0, !dbg !1524
  %60 = load <2 x i64>, <2 x i64>* %59, align 1, !dbg !1524
  store <2 x i64> %60, <2 x i64>* %23, align 16, !dbg !1525
  %61 = load <2 x i64>, <2 x i64>* %21, align 16, !dbg !1526
  %62 = load <2 x i64>, <2 x i64>* %23, align 16, !dbg !1527
  store <2 x i64> %61, <2 x i64>* %7, align 16, !dbg !1528
  store <2 x i64> %62, <2 x i64>* %8, align 16, !dbg !1528
  %63 = load <2 x i64>, <2 x i64>* %7, align 16, !dbg !1528
  %64 = bitcast <2 x i64> %63 to <4 x i32>, !dbg !1528
  %65 = load <2 x i64>, <2 x i64>* %8, align 16, !dbg !1528
  %66 = bitcast <2 x i64> %65 to <4 x i32>, !dbg !1528
  %67 = add <4 x i32> %64, %66, !dbg !1528
  %68 = bitcast <4 x i32> %67 to <2 x i64>, !dbg !1528
  store <2 x i64> %68, <2 x i64>* %21, align 16, !dbg !1529
  %69 = load i32*, i32** %18, align 8, !dbg !1530
  %70 = load i64, i64* %22, align 8, !dbg !1531
  %71 = getelementptr inbounds i32, i32* %69, i64 %70, !dbg !1532
  %72 = getelementptr inbounds i32, i32* %71, i64 8, !dbg !1533
  %73 = bitcast i32* %72 to <2 x i64>*, !dbg !1534
  store <2 x i64>* %73, <2 x i64>** %15, align 8, !dbg !1535
  %74 = load <2 x i64>*, <2 x i64>** %15, align 8, !dbg !1535
  %75 = bitcast <2 x i64>* %74 to %struct.__loadu_si128*, !dbg !1535
  %76 = getelementptr inbounds %struct.__loadu_si128, %struct.__loadu_si128* %75, i32 0, i32 0, !dbg !1535
  %77 = load <2 x i64>, <2 x i64>* %76, align 1, !dbg !1535
  store <2 x i64> %77, <2 x i64>* %23, align 16, !dbg !1536
  %78 = load <2 x i64>, <2 x i64>* %21, align 16, !dbg !1537
  %79 = load <2 x i64>, <2 x i64>* %23, align 16, !dbg !1538
  store <2 x i64> %78, <2 x i64>* %9, align 16, !dbg !1539
  store <2 x i64> %79, <2 x i64>* %10, align 16, !dbg !1539
  %80 = load <2 x i64>, <2 x i64>* %9, align 16, !dbg !1539
  %81 = bitcast <2 x i64> %80 to <4 x i32>, !dbg !1539
  %82 = load <2 x i64>, <2 x i64>* %10, align 16, !dbg !1539
  %83 = bitcast <2 x i64> %82 to <4 x i32>, !dbg !1539
  %84 = add <4 x i32> %81, %83, !dbg !1539
  %85 = bitcast <4 x i32> %84 to <2 x i64>, !dbg !1539
  store <2 x i64> %85, <2 x i64>* %21, align 16, !dbg !1540
  %86 = load i32*, i32** %18, align 8, !dbg !1541
  %87 = load i64, i64* %22, align 8, !dbg !1542
  %88 = getelementptr inbounds i32, i32* %86, i64 %87, !dbg !1543
  %89 = getelementptr inbounds i32, i32* %88, i64 12, !dbg !1544
  %90 = bitcast i32* %89 to <2 x i64>*, !dbg !1545
  store <2 x i64>* %90, <2 x i64>** %16, align 8, !dbg !1546
  %91 = load <2 x i64>*, <2 x i64>** %16, align 8, !dbg !1546
  %92 = bitcast <2 x i64>* %91 to %struct.__loadu_si128*, !dbg !1546
  %93 = getelementptr inbounds %struct.__loadu_si128, %struct.__loadu_si128* %92, i32 0, i32 0, !dbg !1546
  %94 = load <2 x i64>, <2 x i64>* %93, align 1, !dbg !1546
  store <2 x i64> %94, <2 x i64>* %23, align 16, !dbg !1547
  %95 = load <2 x i64>, <2 x i64>* %21, align 16, !dbg !1548
  %96 = load <2 x i64>, <2 x i64>* %23, align 16, !dbg !1549
  store <2 x i64> %95, <2 x i64>* %11, align 16, !dbg !1550
  store <2 x i64> %96, <2 x i64>* %12, align 16, !dbg !1550
  %97 = load <2 x i64>, <2 x i64>* %11, align 16, !dbg !1550
  %98 = bitcast <2 x i64> %97 to <4 x i32>, !dbg !1550
  %99 = load <2 x i64>, <2 x i64>* %12, align 16, !dbg !1550
  %100 = bitcast <2 x i64> %99 to <4 x i32>, !dbg !1550
  %101 = add <4 x i32> %98, %100, !dbg !1550
  %102 = bitcast <4 x i32> %101 to <2 x i64>, !dbg !1550
  store <2 x i64> %102, <2 x i64>* %21, align 16, !dbg !1551
  br label %103, !dbg !1552

103:                                              ; preds = %35
  %104 = load i64, i64* %22, align 8, !dbg !1553
  %105 = add i64 %104, 16, !dbg !1553
  store i64 %105, i64* %22, align 8, !dbg !1553
  br label %29, !dbg !1554, !llvm.loop !1555

106:                                              ; preds = %29
  call void @llvm.dbg.declare(metadata [4 x i32]* %24, metadata !1557, metadata !DIExpression()), !dbg !1558
  %107 = bitcast [4 x i32]* %24 to i8*, !dbg !1558
  call void @llvm.memset.p0i8.i64(i8* align 16 %107, i8 0, i64 16, i1 false), !dbg !1558
  %108 = getelementptr inbounds [4 x i32], [4 x i32]* %24, i64 0, i64 0, !dbg !1559
  %109 = bitcast i32* %108 to <2 x i64>*, !dbg !1560
  %110 = load <2 x i64>, <2 x i64>* %21, align 16, !dbg !1561
  store <2 x i64>* %109, <2 x i64>** %3, align 8, !dbg !1562
  store <2 x i64> %110, <2 x i64>* %4, align 16, !dbg !1562
  %111 = load <2 x i64>, <2 x i64>* %4, align 16, !dbg !1562
  %112 = load <2 x i64>*, <2 x i64>** %3, align 8, !dbg !1562
  %113 = bitcast <2 x i64>* %112 to %struct.__storeu_si128*, !dbg !1562
  %114 = getelementptr inbounds %struct.__storeu_si128, %struct.__storeu_si128* %113, i32 0, i32 0, !dbg !1562
  store <2 x i64> %111, <2 x i64>* %114, align 1, !dbg !1562
  call void @llvm.dbg.declare(metadata i32* %25, metadata !1563, metadata !DIExpression()), !dbg !1564
  store i32 0, i32* %25, align 4, !dbg !1564
  %115 = getelementptr inbounds [4 x i32], [4 x i32]* %24, i64 0, i64 0, !dbg !1565
  %116 = load i32, i32* %115, align 16, !dbg !1565
  %117 = getelementptr inbounds [4 x i32], [4 x i32]* %24, i64 0, i64 1, !dbg !1566
  %118 = load i32, i32* %117, align 4, !dbg !1566
  %119 = add nsw i32 %116, %118, !dbg !1567
  %120 = getelementptr inbounds [4 x i32], [4 x i32]* %24, i64 0, i64 2, !dbg !1568
  %121 = load i32, i32* %120, align 8, !dbg !1568
  %122 = add nsw i32 %119, %121, !dbg !1569
  %123 = getelementptr inbounds [4 x i32], [4 x i32]* %24, i64 0, i64 3, !dbg !1570
  %124 = load i32, i32* %123, align 4, !dbg !1570
  %125 = add nsw i32 %122, %124, !dbg !1571
  %126 = load i32, i32* %25, align 4, !dbg !1572
  %127 = add nsw i32 %126, %125, !dbg !1572
  store i32 %127, i32* %25, align 4, !dbg !1572
  br label %128, !dbg !1573

128:                                              ; preds = %132, %106
  %129 = load i64, i64* %22, align 8, !dbg !1574
  %130 = load i64, i64* %19, align 8, !dbg !1575
  %131 = icmp ult i64 %129, %130, !dbg !1576
  br i1 %131, label %132, label %140, !dbg !1573

132:                                              ; preds = %128
  %133 = load i32*, i32** %18, align 8, !dbg !1577
  %134 = load i64, i64* %22, align 8, !dbg !1578
  %135 = add i64 %134, 1, !dbg !1578
  store i64 %135, i64* %22, align 8, !dbg !1578
  %136 = getelementptr inbounds i32, i32* %133, i64 %134, !dbg !1577
  %137 = load i32, i32* %136, align 4, !dbg !1577
  %138 = load i32, i32* %25, align 4, !dbg !1579
  %139 = add nsw i32 %138, %137, !dbg !1579
  store i32 %139, i32* %25, align 4, !dbg !1579
  br label %128, !dbg !1573, !llvm.loop !1580

140:                                              ; preds = %128
  call void @llvm.dbg.declare(metadata i64* %26, metadata !1582, metadata !DIExpression()), !dbg !1583
  %141 = call i64 @"\01_clock"(), !dbg !1584
  store i64 %141, i64* %26, align 8, !dbg !1583
  %142 = load i64, i64* %26, align 8, !dbg !1585
  %143 = load i64, i64* %20, align 8, !dbg !1586
  %144 = sub i64 %142, %143, !dbg !1587
  %145 = uitofp i64 %144 to x86_fp80, !dbg !1588
  %146 = fmul x86_fp80 %145, 0xK4008FA00000000000000, !dbg !1589
  %147 = fdiv x86_fp80 %146, 0xK4012F424000000000000, !dbg !1590
  %148 = call i32 (i8*, ...) @printf(i8* noundef getelementptr inbounds ([29 x i8], [29 x i8]* @.str.3, i64 0, i64 0), x86_fp80 noundef %147), !dbg !1591
  %149 = load i32, i32* %25, align 4, !dbg !1592
  ret i32 %149, !dbg !1593
}

; Function Attrs: mustprogress noinline norecurse optnone ssp uwtable
define noundef i32 @main() #6 !dbg !1594 {
  %1 = alloca [200000 x i32], align 16
  call void @llvm.dbg.declare(metadata [200000 x i32]* %1, metadata !1595, metadata !DIExpression()), !dbg !1599
  %2 = getelementptr inbounds [200000 x i32], [200000 x i32]* %1, i64 0, i64 0, !dbg !1600
  %3 = call noundef i32 @_Z9sum_naivePim(i32* noundef %2, i64 noundef 200000), !dbg !1601
  %4 = getelementptr inbounds [200000 x i32], [200000 x i32]* %1, i64 0, i64 0, !dbg !1602
  %5 = call noundef i32 @_Z12sum_unrolledPim(i32* noundef %4, i64 noundef 200000), !dbg !1603
  %6 = getelementptr inbounds [200000 x i32], [200000 x i32]* %1, i64 0, i64 0, !dbg !1604
  %7 = call noundef i32 @_Z13sum_naive_ssePim(i32* noundef %6, i64 noundef 200000), !dbg !1605
  %8 = getelementptr inbounds [200000 x i32], [200000 x i32]* %1, i64 0, i64 0, !dbg !1606
  %9 = call noundef i32 @_Z16sum_unrolled_ssePim(i32* noundef %8, i64 noundef 200000), !dbg !1607
  ret i32 0, !dbg !1608
}

attributes #0 = { mustprogress noinline optnone ssp uwtable "frame-pointer"="all" "min-legal-vector-width"="0" "no-trapping-math"="true" "stack-protector-buffer-size"="8" "target-cpu"="penryn" "target-features"="+avx,+avx2,+crc32,+cx16,+cx8,+fxsr,+mmx,+popcnt,+sahf,+sse,+sse2,+sse3,+sse4.1,+sse4.2,+ssse3,+x87,+xsave" "tune-cpu"="generic" }
attributes #1 = { nofree nosync nounwind readnone speculatable willreturn }
attributes #2 = { "frame-pointer"="all" "no-trapping-math"="true" "stack-protector-buffer-size"="8" "target-cpu"="penryn" "target-features"="+avx,+avx2,+crc32,+cx16,+cx8,+fxsr,+mmx,+popcnt,+sahf,+sse,+sse2,+sse3,+sse4.1,+sse4.2,+ssse3,+x87,+xsave" "tune-cpu"="generic" }
attributes #3 = { mustprogress noinline optnone ssp uwtable "frame-pointer"="all" "min-legal-vector-width"="128" "no-trapping-math"="true" "stack-protector-buffer-size"="8" "target-cpu"="penryn" "target-features"="+avx,+avx2,+crc32,+cx16,+cx8,+fxsr,+mmx,+popcnt,+sahf,+sse,+sse2,+sse3,+sse4.1,+sse4.2,+ssse3,+x87,+xsave" "tune-cpu"="generic" }
attributes #4 = { nounwind }
attributes #5 = { argmemonly nofree nounwind willreturn writeonly }
attributes #6 = { mustprogress noinline norecurse optnone ssp uwtable "frame-pointer"="all" "min-legal-vector-width"="0" "no-trapping-math"="true" "stack-protector-buffer-size"="8" "target-cpu"="penryn" "target-features"="+avx,+avx2,+crc32,+cx16,+cx8,+fxsr,+mmx,+popcnt,+sahf,+sse,+sse2,+sse3,+sse4.1,+sse4.2,+ssse3,+x87,+xsave" "tune-cpu"="generic" }

!llvm.module.flags = !{!1297, !1298, !1299, !1300, !1301, !1302, !1303}
!llvm.dbg.cu = !{!13}
!llvm.ident = !{!1304}

!0 = !DIGlobalVariableExpression(var: !1, expr: !DIExpression())
!1 = distinct !DIGlobalVariable(name: "ans_vec", scope: !2, file: !3, line: 55, type: !17, isLocal: true, isDefinition: true)
!2 = distinct !DISubprogram(name: "sum_naive_sse", linkageName: "_Z13sum_naive_ssePim", scope: !3, file: !3, line: 52, type: !4, scopeLine: 52, flags: DIFlagPrototyped, spFlags: DISPFlagDefinition, unit: !13, retainedNodes: !1296)
!3 = !DIFile(filename: "main.cpp", directory: "/Users/haohua/Documents/GitHub/cs-nano-projects/cpp-simd/hello-world")
!4 = !DISubroutineType(types: !5)
!5 = !{!6, !7, !8}
!6 = !DIBasicType(name: "int", size: 32, encoding: DW_ATE_signed)
!7 = !DIDerivedType(tag: DW_TAG_pointer_type, baseType: !6, size: 64)
!8 = !DIDerivedType(tag: DW_TAG_typedef, name: "size_t", file: !9, line: 31, baseType: !10)
!9 = !DIFile(filename: "/Applications/Xcode.app/Contents/Developer/Platforms/MacOSX.platform/Developer/SDKs/MacOSX12.1.sdk/usr/include/sys/_types/_size_t.h", directory: "")
!10 = !DIDerivedType(tag: DW_TAG_typedef, name: "__darwin_size_t", file: !11, line: 94, baseType: !12)
!11 = !DIFile(filename: "/Applications/Xcode.app/Contents/Developer/Platforms/MacOSX.platform/Developer/SDKs/MacOSX12.1.sdk/usr/include/i386/_types.h", directory: "")
!12 = !DIBasicType(name: "unsigned long", size: 64, encoding: DW_ATE_unsigned)
!13 = distinct !DICompileUnit(language: DW_LANG_C_plus_plus_14, file: !3, producer: "clang version 14.0.0 (https://github.com/llvm/llvm-project.git e7298464c5d004a119583cdb8a120dc3d968508d)", isOptimized: false, runtimeVersion: 0, emissionKind: FullDebug, retainedTypes: !14, globals: !39, imports: !45, splitDebugInlining: false, nameTableKind: None, sysroot: "/Applications/Xcode.app/Contents/Developer/Platforms/MacOSX.platform/Developer/SDKs/MacOSX12.1.sdk", sdk: "MacOSX12.1.sdk")
!14 = !{!15, !16, !17, !23, !29, !35}
!15 = !DIBasicType(name: "long double", size: 128, encoding: DW_ATE_float)
!16 = !DIDerivedType(tag: DW_TAG_pointer_type, baseType: !17, size: 64)
!17 = !DIDerivedType(tag: DW_TAG_typedef, name: "__m128i", file: !18, line: 20, baseType: !19, align: 128)
!18 = !DIFile(filename: "/usr/local/lib/clang/14.0.0/include/emmintrin.h", directory: "")
!19 = !DICompositeType(tag: DW_TAG_array_type, baseType: !20, size: 128, flags: DIFlagVector, elements: !21)
!20 = !DIBasicType(name: "long long", size: 64, encoding: DW_ATE_signed)
!21 = !{!22}
!22 = !DISubrange(count: 2)
!23 = !DIDerivedType(tag: DW_TAG_pointer_type, baseType: !24, size: 64)
!24 = !DIDerivedType(tag: DW_TAG_const_type, baseType: !25)
!25 = distinct !DICompositeType(tag: DW_TAG_structure_type, name: "__loadu_si128", file: !18, line: 3554, size: 128, flags: DIFlagTypePassByValue, elements: !26)
!26 = !{!27}
!27 = !DIDerivedType(tag: DW_TAG_member, name: "__v", scope: !25, file: !18, line: 3555, baseType: !28, size: 128, align: 8)
!28 = !DIDerivedType(tag: DW_TAG_typedef, name: "__m128i_u", file: !18, line: 23, baseType: !19, align: 8)
!29 = !DIDerivedType(tag: DW_TAG_typedef, name: "__v4su", file: !30, line: 26, baseType: !31)
!30 = !DIFile(filename: "/usr/local/lib/clang/14.0.0/include/xmmintrin.h", directory: "")
!31 = !DICompositeType(tag: DW_TAG_array_type, baseType: !32, size: 128, flags: DIFlagVector, elements: !33)
!32 = !DIBasicType(name: "unsigned int", size: 32, encoding: DW_ATE_unsigned)
!33 = !{!34}
!34 = !DISubrange(count: 4)
!35 = !DIDerivedType(tag: DW_TAG_pointer_type, baseType: !36, size: 64)
!36 = distinct !DICompositeType(tag: DW_TAG_structure_type, name: "__storeu_si128", file: !18, line: 4017, size: 128, flags: DIFlagTypePassByValue, elements: !37)
!37 = !{!38}
!38 = !DIDerivedType(tag: DW_TAG_member, name: "__v", scope: !36, file: !18, line: 4018, baseType: !28, size: 128, align: 8)
!39 = !{!0, !40, !42}
!40 = !DIGlobalVariableExpression(var: !41, expr: !DIExpression())
!41 = distinct !DIGlobalVariable(name: "b", scope: !2, file: !3, line: 58, type: !17, isLocal: true, isDefinition: true)
!42 = !DIGlobalVariableExpression(var: !43, expr: !DIExpression(DW_OP_constu, 200000, DW_OP_stack_value))
!43 = distinct !DIGlobalVariable(name: "N", scope: !13, file: !3, line: 18, type: !44, isLocal: true, isDefinition: true)
!44 = !DIDerivedType(tag: DW_TAG_const_type, baseType: !8)
!45 = !{!46, !50, !57, !64, !70, !78, !82, !86, !90, !96, !101, !105, !109, !113, !117, !122, !126, !130, !136, !140, !144, !148, !152, !157, !161, !163, !167, !169, !178, !182, !187, !191, !195, !199, !203, !205, !209, !215, !219, !223, !229, !234, !235, !239, !254, !258, !262, !267, !272, !278, !284, !288, !290, !294, !351, !352, !353, !359, !361, !365, !369, !373, !375, !379, !383, !387, !398, !400, !404, !408, !412, !414, !418, !422, !426, !428, !430, !432, !436, !440, !445, !449, !455, !459, !463, !465, !467, !469, !473, !477, !481, !483, !487, !491, !495, !497, !501, !505, !507, !511, !513, !515, !519, !520, !523, !528, !531, !534, !537, !540, !544, !547, !550, !553, !555, !557, !559, !561, !563, !565, !567, !569, !571, !573, !575, !577, !579, !581, !583, !587, !590, !593, !596, !601, !608, !610, !613, !615, !616, !620, !622, !624, !628, !630, !632, !634, !636, !638, !640, !642, !646, !650, !652, !654, !659, !664, !666, !668, !670, !672, !674, !676, !678, !680, !682, !684, !686, !688, !690, !692, !694, !696, !700, !702, !704, !706, !710, !712, !716, !718, !720, !722, !724, !728, !730, !732, !736, !738, !740, !744, !746, !750, !752, !754, !758, !760, !762, !764, !766, !768, !770, !774, !776, !778, !780, !782, !784, !786, !788, !792, !796, !798, !800, !802, !804, !806, !808, !810, !812, !814, !816, !818, !820, !822, !824, !826, !828, !830, !832, !834, !838, !840, !842, !844, !848, !850, !854, !856, !858, !860, !862, !866, !868, !872, !874, !876, !878, !880, !884, !886, !888, !892, !894, !896, !898, !902, !904, !906, !908, !910, !912, !914, !916, !918, !920, !922, !924, !926, !928, !933, !946, !948, !953, !955, !959, !963, !965, !967, !971, !973, !977, !979, !983, !988, !992, !996, !998, !1000, !1002, !1004, !1006, !1008, !1012, !1016, !1021, !1026, !1031, !1036, !1038, !1041, !1043, !1045, !1047, !1049, !1051, !1053, !1055, !1057, !1059, !1063, !1067, !1071, !1073, !1077, !1081, !1083, !1084, !1085, !1086, !1087, !1092, !1094, !1098, !1102, !1106, !1110, !1112, !1116, !1120, !1124, !1128, !1132, !1136, !1138, !1140, !1144, !1149, !1153, !1157, !1161, !1165, !1169, !1173, !1177, !1181, !1183, !1185, !1189, !1191, !1195, !1199, !1204, !1206, !1208, !1210, !1214, !1218, !1222, !1224, !1228, !1230, !1232, !1234, !1236, !1240, !1244, !1246, !1252, !1257, !1261, !1265, !1270, !1275, !1279, !1283, !1287, !1291, !1293, !1295}
!46 = !DIImportedEntity(tag: DW_TAG_imported_declaration, scope: !47, entity: !8, file: !49, line: 99)
!47 = !DINamespace(name: "__1", scope: !48, exportSymbols: true)
!48 = !DINamespace(name: "std", scope: null)
!49 = !DIFile(filename: "/usr/local/bin/../include/c++/v1/cstdlib", directory: "")
!50 = !DIImportedEntity(tag: DW_TAG_imported_declaration, scope: !47, entity: !51, file: !49, line: 100)
!51 = !DIDerivedType(tag: DW_TAG_typedef, name: "div_t", file: !52, line: 86, baseType: !53)
!52 = !DIFile(filename: "/Applications/Xcode.app/Contents/Developer/Platforms/MacOSX.platform/Developer/SDKs/MacOSX12.1.sdk/usr/include/stdlib.h", directory: "")
!53 = distinct !DICompositeType(tag: DW_TAG_structure_type, file: !52, line: 83, size: 64, flags: DIFlagTypePassByValue, elements: !54, identifier: "_ZTS5div_t")
!54 = !{!55, !56}
!55 = !DIDerivedType(tag: DW_TAG_member, name: "quot", scope: !53, file: !52, line: 84, baseType: !6, size: 32)
!56 = !DIDerivedType(tag: DW_TAG_member, name: "rem", scope: !53, file: !52, line: 85, baseType: !6, size: 32, offset: 32)
!57 = !DIImportedEntity(tag: DW_TAG_imported_declaration, scope: !47, entity: !58, file: !49, line: 101)
!58 = !DIDerivedType(tag: DW_TAG_typedef, name: "ldiv_t", file: !52, line: 91, baseType: !59)
!59 = distinct !DICompositeType(tag: DW_TAG_structure_type, file: !52, line: 88, size: 128, flags: DIFlagTypePassByValue, elements: !60, identifier: "_ZTS6ldiv_t")
!60 = !{!61, !63}
!61 = !DIDerivedType(tag: DW_TAG_member, name: "quot", scope: !59, file: !52, line: 89, baseType: !62, size: 64)
!62 = !DIBasicType(name: "long", size: 64, encoding: DW_ATE_signed)
!63 = !DIDerivedType(tag: DW_TAG_member, name: "rem", scope: !59, file: !52, line: 90, baseType: !62, size: 64, offset: 64)
!64 = !DIImportedEntity(tag: DW_TAG_imported_declaration, scope: !47, entity: !65, file: !49, line: 102)
!65 = !DIDerivedType(tag: DW_TAG_typedef, name: "lldiv_t", file: !52, line: 97, baseType: !66)
!66 = distinct !DICompositeType(tag: DW_TAG_structure_type, file: !52, line: 94, size: 128, flags: DIFlagTypePassByValue, elements: !67, identifier: "_ZTS7lldiv_t")
!67 = !{!68, !69}
!68 = !DIDerivedType(tag: DW_TAG_member, name: "quot", scope: !66, file: !52, line: 95, baseType: !20, size: 64)
!69 = !DIDerivedType(tag: DW_TAG_member, name: "rem", scope: !66, file: !52, line: 96, baseType: !20, size: 64, offset: 64)
!70 = !DIImportedEntity(tag: DW_TAG_imported_declaration, scope: !47, entity: !71, file: !49, line: 103)
!71 = !DISubprogram(name: "atof", scope: !52, file: !52, line: 134, type: !72, flags: DIFlagPrototyped, spFlags: 0)
!72 = !DISubroutineType(types: !73)
!73 = !{!74, !75}
!74 = !DIBasicType(name: "double", size: 64, encoding: DW_ATE_float)
!75 = !DIDerivedType(tag: DW_TAG_pointer_type, baseType: !76, size: 64)
!76 = !DIDerivedType(tag: DW_TAG_const_type, baseType: !77)
!77 = !DIBasicType(name: "char", size: 8, encoding: DW_ATE_signed_char)
!78 = !DIImportedEntity(tag: DW_TAG_imported_declaration, scope: !47, entity: !79, file: !49, line: 104)
!79 = !DISubprogram(name: "atoi", scope: !52, file: !52, line: 135, type: !80, flags: DIFlagPrototyped, spFlags: 0)
!80 = !DISubroutineType(types: !81)
!81 = !{!6, !75}
!82 = !DIImportedEntity(tag: DW_TAG_imported_declaration, scope: !47, entity: !83, file: !49, line: 105)
!83 = !DISubprogram(name: "atol", scope: !52, file: !52, line: 136, type: !84, flags: DIFlagPrototyped, spFlags: 0)
!84 = !DISubroutineType(types: !85)
!85 = !{!62, !75}
!86 = !DIImportedEntity(tag: DW_TAG_imported_declaration, scope: !47, entity: !87, file: !49, line: 106)
!87 = !DISubprogram(name: "atoll", scope: !52, file: !52, line: 139, type: !88, flags: DIFlagPrototyped, spFlags: 0)
!88 = !DISubroutineType(types: !89)
!89 = !{!20, !75}
!90 = !DIImportedEntity(tag: DW_TAG_imported_declaration, scope: !47, entity: !91, file: !49, line: 107)
!91 = !DISubprogram(name: "strtod", linkageName: "\01_strtod", scope: !52, file: !52, line: 165, type: !92, flags: DIFlagPrototyped, spFlags: 0)
!92 = !DISubroutineType(types: !93)
!93 = !{!74, !75, !94}
!94 = !DIDerivedType(tag: DW_TAG_pointer_type, baseType: !95, size: 64)
!95 = !DIDerivedType(tag: DW_TAG_pointer_type, baseType: !77, size: 64)
!96 = !DIImportedEntity(tag: DW_TAG_imported_declaration, scope: !47, entity: !97, file: !49, line: 108)
!97 = !DISubprogram(name: "strtof", linkageName: "\01_strtof", scope: !52, file: !52, line: 166, type: !98, flags: DIFlagPrototyped, spFlags: 0)
!98 = !DISubroutineType(types: !99)
!99 = !{!100, !75, !94}
!100 = !DIBasicType(name: "float", size: 32, encoding: DW_ATE_float)
!101 = !DIImportedEntity(tag: DW_TAG_imported_declaration, scope: !47, entity: !102, file: !49, line: 109)
!102 = !DISubprogram(name: "strtold", scope: !52, file: !52, line: 169, type: !103, flags: DIFlagPrototyped, spFlags: 0)
!103 = !DISubroutineType(types: !104)
!104 = !{!15, !75, !94}
!105 = !DIImportedEntity(tag: DW_TAG_imported_declaration, scope: !47, entity: !106, file: !49, line: 110)
!106 = !DISubprogram(name: "strtol", scope: !52, file: !52, line: 167, type: !107, flags: DIFlagPrototyped, spFlags: 0)
!107 = !DISubroutineType(types: !108)
!108 = !{!62, !75, !94, !6}
!109 = !DIImportedEntity(tag: DW_TAG_imported_declaration, scope: !47, entity: !110, file: !49, line: 111)
!110 = !DISubprogram(name: "strtoll", scope: !52, file: !52, line: 172, type: !111, flags: DIFlagPrototyped, spFlags: 0)
!111 = !DISubroutineType(types: !112)
!112 = !{!20, !75, !94, !6}
!113 = !DIImportedEntity(tag: DW_TAG_imported_declaration, scope: !47, entity: !114, file: !49, line: 112)
!114 = !DISubprogram(name: "strtoul", scope: !52, file: !52, line: 175, type: !115, flags: DIFlagPrototyped, spFlags: 0)
!115 = !DISubroutineType(types: !116)
!116 = !{!12, !75, !94, !6}
!117 = !DIImportedEntity(tag: DW_TAG_imported_declaration, scope: !47, entity: !118, file: !49, line: 113)
!118 = !DISubprogram(name: "strtoull", scope: !52, file: !52, line: 178, type: !119, flags: DIFlagPrototyped, spFlags: 0)
!119 = !DISubroutineType(types: !120)
!120 = !{!121, !75, !94, !6}
!121 = !DIBasicType(name: "unsigned long long", size: 64, encoding: DW_ATE_unsigned)
!122 = !DIImportedEntity(tag: DW_TAG_imported_declaration, scope: !47, entity: !123, file: !49, line: 114)
!123 = !DISubprogram(name: "rand", scope: !52, file: !52, line: 162, type: !124, flags: DIFlagPrototyped, spFlags: 0)
!124 = !DISubroutineType(types: !125)
!125 = !{!6}
!126 = !DIImportedEntity(tag: DW_TAG_imported_declaration, scope: !47, entity: !127, file: !49, line: 115)
!127 = !DISubprogram(name: "srand", scope: !52, file: !52, line: 164, type: !128, flags: DIFlagPrototyped, spFlags: 0)
!128 = !DISubroutineType(types: !129)
!129 = !{null, !32}
!130 = !DIImportedEntity(tag: DW_TAG_imported_declaration, scope: !47, entity: !131, file: !49, line: 116)
!131 = !DISubprogram(name: "calloc", scope: !132, file: !132, line: 41, type: !133, flags: DIFlagPrototyped, spFlags: 0)
!132 = !DIFile(filename: "/Applications/Xcode.app/Contents/Developer/Platforms/MacOSX.platform/Developer/SDKs/MacOSX12.1.sdk/usr/include/malloc/_malloc.h", directory: "")
!133 = !DISubroutineType(types: !134)
!134 = !{!135, !8, !8}
!135 = !DIDerivedType(tag: DW_TAG_pointer_type, baseType: null, size: 64)
!136 = !DIImportedEntity(tag: DW_TAG_imported_declaration, scope: !47, entity: !137, file: !49, line: 117)
!137 = !DISubprogram(name: "free", scope: !132, file: !132, line: 42, type: !138, flags: DIFlagPrototyped, spFlags: 0)
!138 = !DISubroutineType(types: !139)
!139 = !{null, !135}
!140 = !DIImportedEntity(tag: DW_TAG_imported_declaration, scope: !47, entity: !141, file: !49, line: 118)
!141 = !DISubprogram(name: "malloc", scope: !132, file: !132, line: 40, type: !142, flags: DIFlagPrototyped, spFlags: 0)
!142 = !DISubroutineType(types: !143)
!143 = !{!135, !8}
!144 = !DIImportedEntity(tag: DW_TAG_imported_declaration, scope: !47, entity: !145, file: !49, line: 119)
!145 = !DISubprogram(name: "realloc", scope: !132, file: !132, line: 43, type: !146, flags: DIFlagPrototyped, spFlags: 0)
!146 = !DISubroutineType(types: !147)
!147 = !{!135, !135, !8}
!148 = !DIImportedEntity(tag: DW_TAG_imported_declaration, scope: !47, entity: !149, file: !49, line: 120)
!149 = !DISubprogram(name: "abort", scope: !52, file: !52, line: 131, type: !150, flags: DIFlagPrototyped | DIFlagNoReturn, spFlags: 0)
!150 = !DISubroutineType(types: !151)
!151 = !{null}
!152 = !DIImportedEntity(tag: DW_TAG_imported_declaration, scope: !47, entity: !153, file: !49, line: 121)
!153 = !DISubprogram(name: "atexit", scope: !52, file: !52, line: 133, type: !154, flags: DIFlagPrototyped, spFlags: 0)
!154 = !DISubroutineType(types: !155)
!155 = !{!6, !156}
!156 = !DIDerivedType(tag: DW_TAG_pointer_type, baseType: !150, size: 64)
!157 = !DIImportedEntity(tag: DW_TAG_imported_declaration, scope: !47, entity: !158, file: !49, line: 122)
!158 = !DISubprogram(name: "exit", scope: !52, file: !52, line: 145, type: !159, flags: DIFlagPrototyped | DIFlagNoReturn, spFlags: 0)
!159 = !DISubroutineType(types: !160)
!160 = !{null, !6}
!161 = !DIImportedEntity(tag: DW_TAG_imported_declaration, scope: !47, entity: !162, file: !49, line: 123)
!162 = !DISubprogram(name: "_Exit", scope: !52, file: !52, line: 191, type: !159, flags: DIFlagPrototyped | DIFlagNoReturn, spFlags: 0)
!163 = !DIImportedEntity(tag: DW_TAG_imported_declaration, scope: !47, entity: !164, file: !49, line: 125)
!164 = !DISubprogram(name: "getenv", scope: !52, file: !52, line: 147, type: !165, flags: DIFlagPrototyped, spFlags: 0)
!165 = !DISubroutineType(types: !166)
!166 = !{!95, !75}
!167 = !DIImportedEntity(tag: DW_TAG_imported_declaration, scope: !47, entity: !168, file: !49, line: 126)
!168 = !DISubprogram(name: "system", linkageName: "\01_system", scope: !52, file: !52, line: 184, type: !80, flags: DIFlagPrototyped, spFlags: 0)
!169 = !DIImportedEntity(tag: DW_TAG_imported_declaration, scope: !47, entity: !170, file: !49, line: 128)
!170 = !DISubprogram(name: "bsearch", scope: !52, file: !52, line: 141, type: !171, flags: DIFlagPrototyped, spFlags: 0)
!171 = !DISubroutineType(types: !172)
!172 = !{!135, !173, !173, !8, !8, !175}
!173 = !DIDerivedType(tag: DW_TAG_pointer_type, baseType: !174, size: 64)
!174 = !DIDerivedType(tag: DW_TAG_const_type, baseType: null)
!175 = !DIDerivedType(tag: DW_TAG_pointer_type, baseType: !176, size: 64)
!176 = !DISubroutineType(types: !177)
!177 = !{!6, !173, !173}
!178 = !DIImportedEntity(tag: DW_TAG_imported_declaration, scope: !47, entity: !179, file: !49, line: 129)
!179 = !DISubprogram(name: "qsort", scope: !52, file: !52, line: 160, type: !180, flags: DIFlagPrototyped, spFlags: 0)
!180 = !DISubroutineType(types: !181)
!181 = !{null, !135, !8, !8, !175}
!182 = !DIImportedEntity(tag: DW_TAG_imported_declaration, scope: !47, entity: !183, file: !49, line: 130)
!183 = !DISubprogram(name: "abs", linkageName: "_Z3abse", scope: !184, file: !184, line: 129, type: !185, flags: DIFlagPrototyped, spFlags: 0)
!184 = !DIFile(filename: "/usr/local/bin/../include/c++/v1/stdlib.h", directory: "")
!185 = !DISubroutineType(types: !186)
!186 = !{!15, !15}
!187 = !DIImportedEntity(tag: DW_TAG_imported_declaration, scope: !47, entity: !188, file: !49, line: 131)
!188 = !DISubprogram(name: "labs", scope: !52, file: !52, line: 148, type: !189, flags: DIFlagPrototyped, spFlags: 0)
!189 = !DISubroutineType(types: !190)
!190 = !{!62, !62}
!191 = !DIImportedEntity(tag: DW_TAG_imported_declaration, scope: !47, entity: !192, file: !49, line: 132)
!192 = !DISubprogram(name: "llabs", scope: !52, file: !52, line: 152, type: !193, flags: DIFlagPrototyped, spFlags: 0)
!193 = !DISubroutineType(types: !194)
!194 = !{!20, !20}
!195 = !DIImportedEntity(tag: DW_TAG_imported_declaration, scope: !47, entity: !196, file: !49, line: 133)
!196 = !DISubprogram(name: "div", linkageName: "_Z3divxx", scope: !184, file: !184, line: 152, type: !197, flags: DIFlagPrototyped, spFlags: 0)
!197 = !DISubroutineType(types: !198)
!198 = !{!65, !20, !20}
!199 = !DIImportedEntity(tag: DW_TAG_imported_declaration, scope: !47, entity: !200, file: !49, line: 134)
!200 = !DISubprogram(name: "ldiv", scope: !52, file: !52, line: 149, type: !201, flags: DIFlagPrototyped, spFlags: 0)
!201 = !DISubroutineType(types: !202)
!202 = !{!58, !62, !62}
!203 = !DIImportedEntity(tag: DW_TAG_imported_declaration, scope: !47, entity: !204, file: !49, line: 135)
!204 = !DISubprogram(name: "lldiv", scope: !52, file: !52, line: 153, type: !197, flags: DIFlagPrototyped, spFlags: 0)
!205 = !DIImportedEntity(tag: DW_TAG_imported_declaration, scope: !47, entity: !206, file: !49, line: 136)
!206 = !DISubprogram(name: "mblen", scope: !52, file: !52, line: 156, type: !207, flags: DIFlagPrototyped, spFlags: 0)
!207 = !DISubroutineType(types: !208)
!208 = !{!6, !75, !8}
!209 = !DIImportedEntity(tag: DW_TAG_imported_declaration, scope: !47, entity: !210, file: !49, line: 137)
!210 = !DISubprogram(name: "mbtowc", scope: !52, file: !52, line: 158, type: !211, flags: DIFlagPrototyped, spFlags: 0)
!211 = !DISubroutineType(types: !212)
!212 = !{!6, !213, !75, !8}
!213 = !DIDerivedType(tag: DW_TAG_pointer_type, baseType: !214, size: 64)
!214 = !DIBasicType(name: "wchar_t", size: 32, encoding: DW_ATE_signed)
!215 = !DIImportedEntity(tag: DW_TAG_imported_declaration, scope: !47, entity: !216, file: !49, line: 138)
!216 = !DISubprogram(name: "wctomb", scope: !52, file: !52, line: 188, type: !217, flags: DIFlagPrototyped, spFlags: 0)
!217 = !DISubroutineType(types: !218)
!218 = !{!6, !95, !214}
!219 = !DIImportedEntity(tag: DW_TAG_imported_declaration, scope: !47, entity: !220, file: !49, line: 139)
!220 = !DISubprogram(name: "mbstowcs", scope: !52, file: !52, line: 157, type: !221, flags: DIFlagPrototyped, spFlags: 0)
!221 = !DISubroutineType(types: !222)
!222 = !{!8, !213, !75, !8}
!223 = !DIImportedEntity(tag: DW_TAG_imported_declaration, scope: !47, entity: !224, file: !49, line: 140)
!224 = !DISubprogram(name: "wcstombs", scope: !52, file: !52, line: 187, type: !225, flags: DIFlagPrototyped, spFlags: 0)
!225 = !DISubroutineType(types: !226)
!226 = !{!8, !95, !227, !8}
!227 = !DIDerivedType(tag: DW_TAG_pointer_type, baseType: !228, size: 64)
!228 = !DIDerivedType(tag: DW_TAG_const_type, baseType: !214)
!229 = !DIImportedEntity(tag: DW_TAG_imported_declaration, scope: !47, entity: !230, file: !233, line: 71)
!230 = !DIDerivedType(tag: DW_TAG_typedef, name: "clock_t", file: !231, line: 31, baseType: !232)
!231 = !DIFile(filename: "/Applications/Xcode.app/Contents/Developer/Platforms/MacOSX.platform/Developer/SDKs/MacOSX12.1.sdk/usr/include/sys/_types/_clock_t.h", directory: "")
!232 = !DIDerivedType(tag: DW_TAG_typedef, name: "__darwin_clock_t", file: !11, line: 119, baseType: !12)
!233 = !DIFile(filename: "/usr/local/bin/../include/c++/v1/ctime", directory: "")
!234 = !DIImportedEntity(tag: DW_TAG_imported_declaration, scope: !47, entity: !8, file: !233, line: 72)
!235 = !DIImportedEntity(tag: DW_TAG_imported_declaration, scope: !47, entity: !236, file: !233, line: 73)
!236 = !DIDerivedType(tag: DW_TAG_typedef, name: "time_t", file: !237, line: 31, baseType: !238)
!237 = !DIFile(filename: "/Applications/Xcode.app/Contents/Developer/Platforms/MacOSX.platform/Developer/SDKs/MacOSX12.1.sdk/usr/include/sys/_types/_time_t.h", directory: "")
!238 = !DIDerivedType(tag: DW_TAG_typedef, name: "__darwin_time_t", file: !11, line: 122, baseType: !62)
!239 = !DIImportedEntity(tag: DW_TAG_imported_declaration, scope: !47, entity: !240, file: !233, line: 74)
!240 = distinct !DICompositeType(tag: DW_TAG_structure_type, name: "tm", file: !241, line: 75, size: 448, flags: DIFlagTypePassByValue, elements: !242, identifier: "_ZTS2tm")
!241 = !DIFile(filename: "/Applications/Xcode.app/Contents/Developer/Platforms/MacOSX.platform/Developer/SDKs/MacOSX12.1.sdk/usr/include/time.h", directory: "")
!242 = !{!243, !244, !245, !246, !247, !248, !249, !250, !251, !252, !253}
!243 = !DIDerivedType(tag: DW_TAG_member, name: "tm_sec", scope: !240, file: !241, line: 76, baseType: !6, size: 32)
!244 = !DIDerivedType(tag: DW_TAG_member, name: "tm_min", scope: !240, file: !241, line: 77, baseType: !6, size: 32, offset: 32)
!245 = !DIDerivedType(tag: DW_TAG_member, name: "tm_hour", scope: !240, file: !241, line: 78, baseType: !6, size: 32, offset: 64)
!246 = !DIDerivedType(tag: DW_TAG_member, name: "tm_mday", scope: !240, file: !241, line: 79, baseType: !6, size: 32, offset: 96)
!247 = !DIDerivedType(tag: DW_TAG_member, name: "tm_mon", scope: !240, file: !241, line: 80, baseType: !6, size: 32, offset: 128)
!248 = !DIDerivedType(tag: DW_TAG_member, name: "tm_year", scope: !240, file: !241, line: 81, baseType: !6, size: 32, offset: 160)
!249 = !DIDerivedType(tag: DW_TAG_member, name: "tm_wday", scope: !240, file: !241, line: 82, baseType: !6, size: 32, offset: 192)
!250 = !DIDerivedType(tag: DW_TAG_member, name: "tm_yday", scope: !240, file: !241, line: 83, baseType: !6, size: 32, offset: 224)
!251 = !DIDerivedType(tag: DW_TAG_member, name: "tm_isdst", scope: !240, file: !241, line: 84, baseType: !6, size: 32, offset: 256)
!252 = !DIDerivedType(tag: DW_TAG_member, name: "tm_gmtoff", scope: !240, file: !241, line: 85, baseType: !62, size: 64, offset: 320)
!253 = !DIDerivedType(tag: DW_TAG_member, name: "tm_zone", scope: !240, file: !241, line: 86, baseType: !95, size: 64, offset: 384)
!254 = !DIImportedEntity(tag: DW_TAG_imported_declaration, scope: !47, entity: !255, file: !233, line: 78)
!255 = !DISubprogram(name: "clock", linkageName: "\01_clock", scope: !241, file: !241, line: 109, type: !256, flags: DIFlagPrototyped, spFlags: 0)
!256 = !DISubroutineType(types: !257)
!257 = !{!230}
!258 = !DIImportedEntity(tag: DW_TAG_imported_declaration, scope: !47, entity: !259, file: !233, line: 79)
!259 = !DISubprogram(name: "difftime", scope: !241, file: !241, line: 111, type: !260, flags: DIFlagPrototyped, spFlags: 0)
!260 = !DISubroutineType(types: !261)
!261 = !{!74, !236, !236}
!262 = !DIImportedEntity(tag: DW_TAG_imported_declaration, scope: !47, entity: !263, file: !233, line: 80)
!263 = !DISubprogram(name: "mktime", linkageName: "\01_mktime", scope: !241, file: !241, line: 115, type: !264, flags: DIFlagPrototyped, spFlags: 0)
!264 = !DISubroutineType(types: !265)
!265 = !{!236, !266}
!266 = !DIDerivedType(tag: DW_TAG_pointer_type, baseType: !240, size: 64)
!267 = !DIImportedEntity(tag: DW_TAG_imported_declaration, scope: !47, entity: !268, file: !233, line: 81)
!268 = !DISubprogram(name: "time", scope: !241, file: !241, line: 118, type: !269, flags: DIFlagPrototyped, spFlags: 0)
!269 = !DISubroutineType(types: !270)
!270 = !{!236, !271}
!271 = !DIDerivedType(tag: DW_TAG_pointer_type, baseType: !236, size: 64)
!272 = !DIImportedEntity(tag: DW_TAG_imported_declaration, scope: !47, entity: !273, file: !233, line: 82)
!273 = !DISubprogram(name: "asctime", scope: !241, file: !241, line: 108, type: !274, flags: DIFlagPrototyped, spFlags: 0)
!274 = !DISubroutineType(types: !275)
!275 = !{!95, !276}
!276 = !DIDerivedType(tag: DW_TAG_pointer_type, baseType: !277, size: 64)
!277 = !DIDerivedType(tag: DW_TAG_const_type, baseType: !240)
!278 = !DIImportedEntity(tag: DW_TAG_imported_declaration, scope: !47, entity: !279, file: !233, line: 83)
!279 = !DISubprogram(name: "ctime", scope: !241, file: !241, line: 110, type: !280, flags: DIFlagPrototyped, spFlags: 0)
!280 = !DISubroutineType(types: !281)
!281 = !{!95, !282}
!282 = !DIDerivedType(tag: DW_TAG_pointer_type, baseType: !283, size: 64)
!283 = !DIDerivedType(tag: DW_TAG_const_type, baseType: !236)
!284 = !DIImportedEntity(tag: DW_TAG_imported_declaration, scope: !47, entity: !285, file: !233, line: 84)
!285 = !DISubprogram(name: "gmtime", scope: !241, file: !241, line: 113, type: !286, flags: DIFlagPrototyped, spFlags: 0)
!286 = !DISubroutineType(types: !287)
!287 = !{!266, !282}
!288 = !DIImportedEntity(tag: DW_TAG_imported_declaration, scope: !47, entity: !289, file: !233, line: 85)
!289 = !DISubprogram(name: "localtime", scope: !241, file: !241, line: 114, type: !286, flags: DIFlagPrototyped, spFlags: 0)
!290 = !DIImportedEntity(tag: DW_TAG_imported_declaration, scope: !47, entity: !291, file: !233, line: 86)
!291 = !DISubprogram(name: "strftime", linkageName: "\01_strftime", scope: !241, file: !241, line: 116, type: !292, flags: DIFlagPrototyped, spFlags: 0)
!292 = !DISubroutineType(types: !293)
!293 = !{!8, !95, !8, !75, !276}
!294 = !DIImportedEntity(tag: DW_TAG_imported_declaration, scope: !47, entity: !295, file: !350, line: 107)
!295 = !DIDerivedType(tag: DW_TAG_typedef, name: "FILE", file: !296, line: 157, baseType: !297)
!296 = !DIFile(filename: "/Applications/Xcode.app/Contents/Developer/Platforms/MacOSX.platform/Developer/SDKs/MacOSX12.1.sdk/usr/include/_stdio.h", directory: "")
!297 = distinct !DICompositeType(tag: DW_TAG_structure_type, name: "__sFILE", file: !296, line: 126, size: 1216, flags: DIFlagTypePassByValue, elements: !298, identifier: "_ZTS7__sFILE")
!298 = !{!299, !302, !303, !304, !306, !307, !312, !313, !314, !318, !322, !330, !334, !335, !338, !339, !343, !347, !348, !349}
!299 = !DIDerivedType(tag: DW_TAG_member, name: "_p", scope: !297, file: !296, line: 127, baseType: !300, size: 64)
!300 = !DIDerivedType(tag: DW_TAG_pointer_type, baseType: !301, size: 64)
!301 = !DIBasicType(name: "unsigned char", size: 8, encoding: DW_ATE_unsigned_char)
!302 = !DIDerivedType(tag: DW_TAG_member, name: "_r", scope: !297, file: !296, line: 128, baseType: !6, size: 32, offset: 64)
!303 = !DIDerivedType(tag: DW_TAG_member, name: "_w", scope: !297, file: !296, line: 129, baseType: !6, size: 32, offset: 96)
!304 = !DIDerivedType(tag: DW_TAG_member, name: "_flags", scope: !297, file: !296, line: 130, baseType: !305, size: 16, offset: 128)
!305 = !DIBasicType(name: "short", size: 16, encoding: DW_ATE_signed)
!306 = !DIDerivedType(tag: DW_TAG_member, name: "_file", scope: !297, file: !296, line: 131, baseType: !305, size: 16, offset: 144)
!307 = !DIDerivedType(tag: DW_TAG_member, name: "_bf", scope: !297, file: !296, line: 132, baseType: !308, size: 128, offset: 192)
!308 = distinct !DICompositeType(tag: DW_TAG_structure_type, name: "__sbuf", file: !296, line: 92, size: 128, flags: DIFlagTypePassByValue, elements: !309, identifier: "_ZTS6__sbuf")
!309 = !{!310, !311}
!310 = !DIDerivedType(tag: DW_TAG_member, name: "_base", scope: !308, file: !296, line: 93, baseType: !300, size: 64)
!311 = !DIDerivedType(tag: DW_TAG_member, name: "_size", scope: !308, file: !296, line: 94, baseType: !6, size: 32, offset: 64)
!312 = !DIDerivedType(tag: DW_TAG_member, name: "_lbfsize", scope: !297, file: !296, line: 133, baseType: !6, size: 32, offset: 320)
!313 = !DIDerivedType(tag: DW_TAG_member, name: "_cookie", scope: !297, file: !296, line: 136, baseType: !135, size: 64, offset: 384)
!314 = !DIDerivedType(tag: DW_TAG_member, name: "_close", scope: !297, file: !296, line: 137, baseType: !315, size: 64, offset: 448)
!315 = !DIDerivedType(tag: DW_TAG_pointer_type, baseType: !316, size: 64)
!316 = !DISubroutineType(types: !317)
!317 = !{!6, !135}
!318 = !DIDerivedType(tag: DW_TAG_member, name: "_read", scope: !297, file: !296, line: 138, baseType: !319, size: 64, offset: 512)
!319 = !DIDerivedType(tag: DW_TAG_pointer_type, baseType: !320, size: 64)
!320 = !DISubroutineType(types: !321)
!321 = !{!6, !135, !95, !6}
!322 = !DIDerivedType(tag: DW_TAG_member, name: "_seek", scope: !297, file: !296, line: 139, baseType: !323, size: 64, offset: 576)
!323 = !DIDerivedType(tag: DW_TAG_pointer_type, baseType: !324, size: 64)
!324 = !DISubroutineType(types: !325)
!325 = !{!326, !135, !326, !6}
!326 = !DIDerivedType(tag: DW_TAG_typedef, name: "fpos_t", file: !296, line: 81, baseType: !327)
!327 = !DIDerivedType(tag: DW_TAG_typedef, name: "__darwin_off_t", file: !328, line: 71, baseType: !329)
!328 = !DIFile(filename: "/Applications/Xcode.app/Contents/Developer/Platforms/MacOSX.platform/Developer/SDKs/MacOSX12.1.sdk/usr/include/sys/_types.h", directory: "")
!329 = !DIDerivedType(tag: DW_TAG_typedef, name: "__int64_t", file: !11, line: 48, baseType: !20)
!330 = !DIDerivedType(tag: DW_TAG_member, name: "_write", scope: !297, file: !296, line: 140, baseType: !331, size: 64, offset: 640)
!331 = !DIDerivedType(tag: DW_TAG_pointer_type, baseType: !332, size: 64)
!332 = !DISubroutineType(types: !333)
!333 = !{!6, !135, !75, !6}
!334 = !DIDerivedType(tag: DW_TAG_member, name: "_ub", scope: !297, file: !296, line: 143, baseType: !308, size: 128, offset: 704)
!335 = !DIDerivedType(tag: DW_TAG_member, name: "_extra", scope: !297, file: !296, line: 144, baseType: !336, size: 64, offset: 832)
!336 = !DIDerivedType(tag: DW_TAG_pointer_type, baseType: !337, size: 64)
!337 = !DICompositeType(tag: DW_TAG_structure_type, name: "__sFILEX", file: !296, line: 98, flags: DIFlagFwdDecl | DIFlagNonTrivial, identifier: "_ZTS8__sFILEX")
!338 = !DIDerivedType(tag: DW_TAG_member, name: "_ur", scope: !297, file: !296, line: 145, baseType: !6, size: 32, offset: 896)
!339 = !DIDerivedType(tag: DW_TAG_member, name: "_ubuf", scope: !297, file: !296, line: 148, baseType: !340, size: 24, offset: 928)
!340 = !DICompositeType(tag: DW_TAG_array_type, baseType: !301, size: 24, elements: !341)
!341 = !{!342}
!342 = !DISubrange(count: 3)
!343 = !DIDerivedType(tag: DW_TAG_member, name: "_nbuf", scope: !297, file: !296, line: 149, baseType: !344, size: 8, offset: 952)
!344 = !DICompositeType(tag: DW_TAG_array_type, baseType: !301, size: 8, elements: !345)
!345 = !{!346}
!346 = !DISubrange(count: 1)
!347 = !DIDerivedType(tag: DW_TAG_member, name: "_lb", scope: !297, file: !296, line: 152, baseType: !308, size: 128, offset: 960)
!348 = !DIDerivedType(tag: DW_TAG_member, name: "_blksize", scope: !297, file: !296, line: 155, baseType: !6, size: 32, offset: 1088)
!349 = !DIDerivedType(tag: DW_TAG_member, name: "_offset", scope: !297, file: !296, line: 156, baseType: !326, size: 64, offset: 1152)
!350 = !DIFile(filename: "/usr/local/bin/../include/c++/v1/cstdio", directory: "")
!351 = !DIImportedEntity(tag: DW_TAG_imported_declaration, scope: !47, entity: !326, file: !350, line: 108)
!352 = !DIImportedEntity(tag: DW_TAG_imported_declaration, scope: !47, entity: !8, file: !350, line: 109)
!353 = !DIImportedEntity(tag: DW_TAG_imported_declaration, scope: !47, entity: !354, file: !350, line: 111)
!354 = !DISubprogram(name: "fclose", scope: !355, file: !355, line: 143, type: !356, flags: DIFlagPrototyped, spFlags: 0)
!355 = !DIFile(filename: "/Applications/Xcode.app/Contents/Developer/Platforms/MacOSX.platform/Developer/SDKs/MacOSX12.1.sdk/usr/include/stdio.h", directory: "")
!356 = !DISubroutineType(types: !357)
!357 = !{!6, !358}
!358 = !DIDerivedType(tag: DW_TAG_pointer_type, baseType: !295, size: 64)
!359 = !DIImportedEntity(tag: DW_TAG_imported_declaration, scope: !47, entity: !360, file: !350, line: 112)
!360 = !DISubprogram(name: "fflush", scope: !355, file: !355, line: 146, type: !356, flags: DIFlagPrototyped, spFlags: 0)
!361 = !DIImportedEntity(tag: DW_TAG_imported_declaration, scope: !47, entity: !362, file: !350, line: 113)
!362 = !DISubprogram(name: "setbuf", scope: !355, file: !355, line: 178, type: !363, flags: DIFlagPrototyped, spFlags: 0)
!363 = !DISubroutineType(types: !364)
!364 = !{null, !358, !95}
!365 = !DIImportedEntity(tag: DW_TAG_imported_declaration, scope: !47, entity: !366, file: !350, line: 114)
!366 = !DISubprogram(name: "setvbuf", scope: !355, file: !355, line: 179, type: !367, flags: DIFlagPrototyped, spFlags: 0)
!367 = !DISubroutineType(types: !368)
!368 = !{!6, !358, !95, !6, !8}
!369 = !DIImportedEntity(tag: DW_TAG_imported_declaration, scope: !47, entity: !370, file: !350, line: 115)
!370 = !DISubprogram(name: "fprintf", scope: !355, file: !355, line: 155, type: !371, flags: DIFlagPrototyped, spFlags: 0)
!371 = !DISubroutineType(types: !372)
!372 = !{!6, !358, !75, null}
!373 = !DIImportedEntity(tag: DW_TAG_imported_declaration, scope: !47, entity: !374, file: !350, line: 116)
!374 = !DISubprogram(name: "fscanf", scope: !355, file: !355, line: 161, type: !371, flags: DIFlagPrototyped, spFlags: 0)
!375 = !DIImportedEntity(tag: DW_TAG_imported_declaration, scope: !47, entity: !376, file: !350, line: 117)
!376 = !DISubprogram(name: "snprintf", scope: !355, file: !355, line: 327, type: !377, flags: DIFlagPrototyped, spFlags: 0)
!377 = !DISubroutineType(types: !378)
!378 = !{!6, !95, !8, !75, null}
!379 = !DIImportedEntity(tag: DW_TAG_imported_declaration, scope: !47, entity: !380, file: !350, line: 118)
!380 = !DISubprogram(name: "sprintf", scope: !355, file: !355, line: 180, type: !381, flags: DIFlagPrototyped, spFlags: 0)
!381 = !DISubroutineType(types: !382)
!382 = !{!6, !95, !75, null}
!383 = !DIImportedEntity(tag: DW_TAG_imported_declaration, scope: !47, entity: !384, file: !350, line: 119)
!384 = !DISubprogram(name: "sscanf", scope: !355, file: !355, line: 181, type: !385, flags: DIFlagPrototyped, spFlags: 0)
!385 = !DISubroutineType(types: !386)
!386 = !{!6, !75, !75, null}
!387 = !DIImportedEntity(tag: DW_TAG_imported_declaration, scope: !47, entity: !388, file: !350, line: 120)
!388 = !DISubprogram(name: "vfprintf", scope: !355, file: !355, line: 190, type: !389, flags: DIFlagPrototyped, spFlags: 0)
!389 = !DISubroutineType(types: !390)
!390 = !{!6, !358, !75, !391}
!391 = !DIDerivedType(tag: DW_TAG_pointer_type, baseType: !392, size: 64)
!392 = distinct !DICompositeType(tag: DW_TAG_structure_type, name: "__va_list_tag", size: 192, flags: DIFlagTypePassByValue, elements: !393, identifier: "_ZTS13__va_list_tag")
!393 = !{!394, !395, !396, !397}
!394 = !DIDerivedType(tag: DW_TAG_member, name: "gp_offset", scope: !392, file: !3, baseType: !32, size: 32)
!395 = !DIDerivedType(tag: DW_TAG_member, name: "fp_offset", scope: !392, file: !3, baseType: !32, size: 32, offset: 32)
!396 = !DIDerivedType(tag: DW_TAG_member, name: "overflow_arg_area", scope: !392, file: !3, baseType: !135, size: 64, offset: 64)
!397 = !DIDerivedType(tag: DW_TAG_member, name: "reg_save_area", scope: !392, file: !3, baseType: !135, size: 64, offset: 128)
!398 = !DIImportedEntity(tag: DW_TAG_imported_declaration, scope: !47, entity: !399, file: !350, line: 121)
!399 = !DISubprogram(name: "vfscanf", scope: !355, file: !355, line: 328, type: !389, flags: DIFlagPrototyped, spFlags: 0)
!400 = !DIImportedEntity(tag: DW_TAG_imported_declaration, scope: !47, entity: !401, file: !350, line: 122)
!401 = !DISubprogram(name: "vsscanf", scope: !355, file: !355, line: 331, type: !402, flags: DIFlagPrototyped, spFlags: 0)
!402 = !DISubroutineType(types: !403)
!403 = !{!6, !75, !75, !391}
!404 = !DIImportedEntity(tag: DW_TAG_imported_declaration, scope: !47, entity: !405, file: !350, line: 123)
!405 = !DISubprogram(name: "vsnprintf", scope: !355, file: !355, line: 330, type: !406, flags: DIFlagPrototyped, spFlags: 0)
!406 = !DISubroutineType(types: !407)
!407 = !{!6, !95, !8, !75, !391}
!408 = !DIImportedEntity(tag: DW_TAG_imported_declaration, scope: !47, entity: !409, file: !350, line: 124)
!409 = !DISubprogram(name: "vsprintf", scope: !355, file: !355, line: 192, type: !410, flags: DIFlagPrototyped, spFlags: 0)
!410 = !DISubroutineType(types: !411)
!411 = !{!6, !95, !75, !391}
!412 = !DIImportedEntity(tag: DW_TAG_imported_declaration, scope: !47, entity: !413, file: !350, line: 125)
!413 = !DISubprogram(name: "fgetc", scope: !355, file: !355, line: 147, type: !356, flags: DIFlagPrototyped, spFlags: 0)
!414 = !DIImportedEntity(tag: DW_TAG_imported_declaration, scope: !47, entity: !415, file: !350, line: 126)
!415 = !DISubprogram(name: "fgets", scope: !355, file: !355, line: 149, type: !416, flags: DIFlagPrototyped, spFlags: 0)
!416 = !DISubroutineType(types: !417)
!417 = !{!95, !95, !6, !358}
!418 = !DIImportedEntity(tag: DW_TAG_imported_declaration, scope: !47, entity: !419, file: !350, line: 127)
!419 = !DISubprogram(name: "fputc", scope: !355, file: !355, line: 156, type: !420, flags: DIFlagPrototyped, spFlags: 0)
!420 = !DISubroutineType(types: !421)
!421 = !{!6, !6, !358}
!422 = !DIImportedEntity(tag: DW_TAG_imported_declaration, scope: !47, entity: !423, file: !350, line: 128)
!423 = !DISubprogram(name: "fputs", linkageName: "\01_fputs", scope: !355, file: !355, line: 157, type: !424, flags: DIFlagPrototyped, spFlags: 0)
!424 = !DISubroutineType(types: !425)
!425 = !{!6, !75, !358}
!426 = !DIImportedEntity(tag: DW_TAG_imported_declaration, scope: !47, entity: !427, file: !350, line: 129)
!427 = !DISubprogram(name: "getc", scope: !355, file: !355, line: 166, type: !356, flags: DIFlagPrototyped, spFlags: 0)
!428 = !DIImportedEntity(tag: DW_TAG_imported_declaration, scope: !47, entity: !429, file: !350, line: 130)
!429 = !DISubprogram(name: "putc", scope: !355, file: !355, line: 171, type: !420, flags: DIFlagPrototyped, spFlags: 0)
!430 = !DIImportedEntity(tag: DW_TAG_imported_declaration, scope: !47, entity: !431, file: !350, line: 131)
!431 = !DISubprogram(name: "ungetc", scope: !355, file: !355, line: 189, type: !420, flags: DIFlagPrototyped, spFlags: 0)
!432 = !DIImportedEntity(tag: DW_TAG_imported_declaration, scope: !47, entity: !433, file: !350, line: 132)
!433 = !DISubprogram(name: "fread", scope: !355, file: !355, line: 158, type: !434, flags: DIFlagPrototyped, spFlags: 0)
!434 = !DISubroutineType(types: !435)
!435 = !{!8, !135, !8, !8, !358}
!436 = !DIImportedEntity(tag: DW_TAG_imported_declaration, scope: !47, entity: !437, file: !350, line: 133)
!437 = !DISubprogram(name: "fwrite", linkageName: "\01_fwrite", scope: !355, file: !355, line: 165, type: !438, flags: DIFlagPrototyped, spFlags: 0)
!438 = !DISubroutineType(types: !439)
!439 = !{!8, !173, !8, !8, !358}
!440 = !DIImportedEntity(tag: DW_TAG_imported_declaration, scope: !47, entity: !441, file: !350, line: 135)
!441 = !DISubprogram(name: "fgetpos", scope: !355, file: !355, line: 148, type: !442, flags: DIFlagPrototyped, spFlags: 0)
!442 = !DISubroutineType(types: !443)
!443 = !{!6, !358, !444}
!444 = !DIDerivedType(tag: DW_TAG_pointer_type, baseType: !326, size: 64)
!445 = !DIImportedEntity(tag: DW_TAG_imported_declaration, scope: !47, entity: !446, file: !350, line: 137)
!446 = !DISubprogram(name: "fseek", scope: !355, file: !355, line: 162, type: !447, flags: DIFlagPrototyped, spFlags: 0)
!447 = !DISubroutineType(types: !448)
!448 = !{!6, !358, !62, !6}
!449 = !DIImportedEntity(tag: DW_TAG_imported_declaration, scope: !47, entity: !450, file: !350, line: 139)
!450 = !DISubprogram(name: "fsetpos", scope: !355, file: !355, line: 163, type: !451, flags: DIFlagPrototyped, spFlags: 0)
!451 = !DISubroutineType(types: !452)
!452 = !{!6, !358, !453}
!453 = !DIDerivedType(tag: DW_TAG_pointer_type, baseType: !454, size: 64)
!454 = !DIDerivedType(tag: DW_TAG_const_type, baseType: !326)
!455 = !DIImportedEntity(tag: DW_TAG_imported_declaration, scope: !47, entity: !456, file: !350, line: 141)
!456 = !DISubprogram(name: "ftell", scope: !355, file: !355, line: 164, type: !457, flags: DIFlagPrototyped, spFlags: 0)
!457 = !DISubroutineType(types: !458)
!458 = !{!62, !358}
!459 = !DIImportedEntity(tag: DW_TAG_imported_declaration, scope: !47, entity: !460, file: !350, line: 142)
!460 = !DISubprogram(name: "rewind", scope: !355, file: !355, line: 176, type: !461, flags: DIFlagPrototyped, spFlags: 0)
!461 = !DISubroutineType(types: !462)
!462 = !{null, !358}
!463 = !DIImportedEntity(tag: DW_TAG_imported_declaration, scope: !47, entity: !464, file: !350, line: 143)
!464 = !DISubprogram(name: "clearerr", scope: !355, file: !355, line: 142, type: !461, flags: DIFlagPrototyped, spFlags: 0)
!465 = !DIImportedEntity(tag: DW_TAG_imported_declaration, scope: !47, entity: !466, file: !350, line: 144)
!466 = !DISubprogram(name: "feof", scope: !355, file: !355, line: 144, type: !356, flags: DIFlagPrototyped, spFlags: 0)
!467 = !DIImportedEntity(tag: DW_TAG_imported_declaration, scope: !47, entity: !468, file: !350, line: 145)
!468 = !DISubprogram(name: "ferror", scope: !355, file: !355, line: 145, type: !356, flags: DIFlagPrototyped, spFlags: 0)
!469 = !DIImportedEntity(tag: DW_TAG_imported_declaration, scope: !47, entity: !470, file: !350, line: 146)
!470 = !DISubprogram(name: "perror", scope: !355, file: !355, line: 169, type: !471, flags: DIFlagPrototyped, spFlags: 0)
!471 = !DISubroutineType(types: !472)
!472 = !{null, !75}
!473 = !DIImportedEntity(tag: DW_TAG_imported_declaration, scope: !47, entity: !474, file: !350, line: 148)
!474 = !DISubprogram(name: "fopen", linkageName: "\01_fopen", scope: !355, file: !355, line: 153, type: !475, flags: DIFlagPrototyped, spFlags: 0)
!475 = !DISubroutineType(types: !476)
!476 = !{!358, !75, !75}
!477 = !DIImportedEntity(tag: DW_TAG_imported_declaration, scope: !47, entity: !478, file: !350, line: 149)
!478 = !DISubprogram(name: "freopen", linkageName: "\01_freopen", scope: !355, file: !355, line: 159, type: !479, flags: DIFlagPrototyped, spFlags: 0)
!479 = !DISubroutineType(types: !480)
!480 = !{!358, !75, !75, !358}
!481 = !DIImportedEntity(tag: DW_TAG_imported_declaration, scope: !47, entity: !482, file: !350, line: 150)
!482 = !DISubprogram(name: "remove", scope: !355, file: !355, line: 174, type: !80, flags: DIFlagPrototyped, spFlags: 0)
!483 = !DIImportedEntity(tag: DW_TAG_imported_declaration, scope: !47, entity: !484, file: !350, line: 151)
!484 = !DISubprogram(name: "rename", scope: !355, file: !355, line: 175, type: !485, flags: DIFlagPrototyped, spFlags: 0)
!485 = !DISubroutineType(types: !486)
!486 = !{!6, !75, !75}
!487 = !DIImportedEntity(tag: DW_TAG_imported_declaration, scope: !47, entity: !488, file: !350, line: 152)
!488 = !DISubprogram(name: "tmpfile", scope: !355, file: !355, line: 182, type: !489, flags: DIFlagPrototyped, spFlags: 0)
!489 = !DISubroutineType(types: !490)
!490 = !{!358}
!491 = !DIImportedEntity(tag: DW_TAG_imported_declaration, scope: !47, entity: !492, file: !350, line: 153)
!492 = !DISubprogram(name: "tmpnam", scope: !355, file: !355, line: 188, type: !493, flags: DIFlagPrototyped, spFlags: 0)
!493 = !DISubroutineType(types: !494)
!494 = !{!95, !95}
!495 = !DIImportedEntity(tag: DW_TAG_imported_declaration, scope: !47, entity: !496, file: !350, line: 155)
!496 = !DISubprogram(name: "getchar", scope: !355, file: !355, line: 167, type: !124, flags: DIFlagPrototyped, spFlags: 0)
!497 = !DIImportedEntity(tag: DW_TAG_imported_declaration, scope: !47, entity: !498, file: !350, line: 159)
!498 = !DISubprogram(name: "scanf", scope: !355, file: !355, line: 177, type: !499, flags: DIFlagPrototyped, spFlags: 0)
!499 = !DISubroutineType(types: !500)
!500 = !{!6, !75, null}
!501 = !DIImportedEntity(tag: DW_TAG_imported_declaration, scope: !47, entity: !502, file: !350, line: 160)
!502 = !DISubprogram(name: "vscanf", scope: !355, file: !355, line: 329, type: !503, flags: DIFlagPrototyped, spFlags: 0)
!503 = !DISubroutineType(types: !504)
!504 = !{!6, !75, !391}
!505 = !DIImportedEntity(tag: DW_TAG_imported_declaration, scope: !47, entity: !506, file: !350, line: 162)
!506 = !DISubprogram(name: "printf", scope: !355, file: !355, line: 170, type: !499, flags: DIFlagPrototyped, spFlags: 0)
!507 = !DIImportedEntity(tag: DW_TAG_imported_declaration, scope: !47, entity: !508, file: !350, line: 163)
!508 = !DISubprogram(name: "putchar", scope: !355, file: !355, line: 172, type: !509, flags: DIFlagPrototyped, spFlags: 0)
!509 = !DISubroutineType(types: !510)
!510 = !{!6, !6}
!511 = !DIImportedEntity(tag: DW_TAG_imported_declaration, scope: !47, entity: !512, file: !350, line: 164)
!512 = !DISubprogram(name: "puts", scope: !355, file: !355, line: 173, type: !80, flags: DIFlagPrototyped, spFlags: 0)
!513 = !DIImportedEntity(tag: DW_TAG_imported_declaration, scope: !47, entity: !514, file: !350, line: 165)
!514 = !DISubprogram(name: "vprintf", scope: !355, file: !355, line: 191, type: !503, flags: DIFlagPrototyped, spFlags: 0)
!515 = !DIImportedEntity(tag: DW_TAG_imported_declaration, scope: !47, entity: !516, file: !518, line: 49)
!516 = !DIDerivedType(tag: DW_TAG_typedef, name: "ptrdiff_t", file: !517, line: 35, baseType: !62)
!517 = !DIFile(filename: "/usr/local/lib/clang/14.0.0/include/stddef.h", directory: "")
!518 = !DIFile(filename: "/usr/local/bin/../include/c++/v1/cstddef", directory: "")
!519 = !DIImportedEntity(tag: DW_TAG_imported_declaration, scope: !47, entity: !8, file: !518, line: 50)
!520 = !DIImportedEntity(tag: DW_TAG_imported_declaration, scope: !47, entity: !521, file: !518, line: 53)
!521 = !DIDerivedType(tag: DW_TAG_typedef, name: "max_align_t", file: !522, line: 16, baseType: !15)
!522 = !DIFile(filename: "/usr/local/lib/clang/14.0.0/include/__stddef_max_align_t.h", directory: "")
!523 = !DIImportedEntity(tag: DW_TAG_imported_declaration, scope: !47, entity: !524, file: !527, line: 152)
!524 = !DIDerivedType(tag: DW_TAG_typedef, name: "int8_t", file: !525, line: 30, baseType: !526)
!525 = !DIFile(filename: "/Applications/Xcode.app/Contents/Developer/Platforms/MacOSX.platform/Developer/SDKs/MacOSX12.1.sdk/usr/include/sys/_types/_int8_t.h", directory: "")
!526 = !DIBasicType(name: "signed char", size: 8, encoding: DW_ATE_signed_char)
!527 = !DIFile(filename: "/usr/local/bin/../include/c++/v1/cstdint", directory: "")
!528 = !DIImportedEntity(tag: DW_TAG_imported_declaration, scope: !47, entity: !529, file: !527, line: 153)
!529 = !DIDerivedType(tag: DW_TAG_typedef, name: "int16_t", file: !530, line: 30, baseType: !305)
!530 = !DIFile(filename: "/Applications/Xcode.app/Contents/Developer/Platforms/MacOSX.platform/Developer/SDKs/MacOSX12.1.sdk/usr/include/sys/_types/_int16_t.h", directory: "")
!531 = !DIImportedEntity(tag: DW_TAG_imported_declaration, scope: !47, entity: !532, file: !527, line: 154)
!532 = !DIDerivedType(tag: DW_TAG_typedef, name: "int32_t", file: !533, line: 30, baseType: !6)
!533 = !DIFile(filename: "/Applications/Xcode.app/Contents/Developer/Platforms/MacOSX.platform/Developer/SDKs/MacOSX12.1.sdk/usr/include/sys/_types/_int32_t.h", directory: "")
!534 = !DIImportedEntity(tag: DW_TAG_imported_declaration, scope: !47, entity: !535, file: !527, line: 155)
!535 = !DIDerivedType(tag: DW_TAG_typedef, name: "int64_t", file: !536, line: 30, baseType: !20)
!536 = !DIFile(filename: "/Applications/Xcode.app/Contents/Developer/Platforms/MacOSX.platform/Developer/SDKs/MacOSX12.1.sdk/usr/include/sys/_types/_int64_t.h", directory: "")
!537 = !DIImportedEntity(tag: DW_TAG_imported_declaration, scope: !47, entity: !538, file: !527, line: 157)
!538 = !DIDerivedType(tag: DW_TAG_typedef, name: "uint8_t", file: !539, line: 31, baseType: !301)
!539 = !DIFile(filename: "/Applications/Xcode.app/Contents/Developer/Platforms/MacOSX.platform/Developer/SDKs/MacOSX12.1.sdk/usr/include/_types/_uint8_t.h", directory: "")
!540 = !DIImportedEntity(tag: DW_TAG_imported_declaration, scope: !47, entity: !541, file: !527, line: 158)
!541 = !DIDerivedType(tag: DW_TAG_typedef, name: "uint16_t", file: !542, line: 31, baseType: !543)
!542 = !DIFile(filename: "/Applications/Xcode.app/Contents/Developer/Platforms/MacOSX.platform/Developer/SDKs/MacOSX12.1.sdk/usr/include/_types/_uint16_t.h", directory: "")
!543 = !DIBasicType(name: "unsigned short", size: 16, encoding: DW_ATE_unsigned)
!544 = !DIImportedEntity(tag: DW_TAG_imported_declaration, scope: !47, entity: !545, file: !527, line: 159)
!545 = !DIDerivedType(tag: DW_TAG_typedef, name: "uint32_t", file: !546, line: 31, baseType: !32)
!546 = !DIFile(filename: "/Applications/Xcode.app/Contents/Developer/Platforms/MacOSX.platform/Developer/SDKs/MacOSX12.1.sdk/usr/include/_types/_uint32_t.h", directory: "")
!547 = !DIImportedEntity(tag: DW_TAG_imported_declaration, scope: !47, entity: !548, file: !527, line: 160)
!548 = !DIDerivedType(tag: DW_TAG_typedef, name: "uint64_t", file: !549, line: 31, baseType: !121)
!549 = !DIFile(filename: "/Applications/Xcode.app/Contents/Developer/Platforms/MacOSX.platform/Developer/SDKs/MacOSX12.1.sdk/usr/include/_types/_uint64_t.h", directory: "")
!550 = !DIImportedEntity(tag: DW_TAG_imported_declaration, scope: !47, entity: !551, file: !527, line: 162)
!551 = !DIDerivedType(tag: DW_TAG_typedef, name: "int_least8_t", file: !552, line: 29, baseType: !524)
!552 = !DIFile(filename: "/Applications/Xcode.app/Contents/Developer/Platforms/MacOSX.platform/Developer/SDKs/MacOSX12.1.sdk/usr/include/stdint.h", directory: "")
!553 = !DIImportedEntity(tag: DW_TAG_imported_declaration, scope: !47, entity: !554, file: !527, line: 163)
!554 = !DIDerivedType(tag: DW_TAG_typedef, name: "int_least16_t", file: !552, line: 30, baseType: !529)
!555 = !DIImportedEntity(tag: DW_TAG_imported_declaration, scope: !47, entity: !556, file: !527, line: 164)
!556 = !DIDerivedType(tag: DW_TAG_typedef, name: "int_least32_t", file: !552, line: 31, baseType: !532)
!557 = !DIImportedEntity(tag: DW_TAG_imported_declaration, scope: !47, entity: !558, file: !527, line: 165)
!558 = !DIDerivedType(tag: DW_TAG_typedef, name: "int_least64_t", file: !552, line: 32, baseType: !535)
!559 = !DIImportedEntity(tag: DW_TAG_imported_declaration, scope: !47, entity: !560, file: !527, line: 167)
!560 = !DIDerivedType(tag: DW_TAG_typedef, name: "uint_least8_t", file: !552, line: 33, baseType: !538)
!561 = !DIImportedEntity(tag: DW_TAG_imported_declaration, scope: !47, entity: !562, file: !527, line: 168)
!562 = !DIDerivedType(tag: DW_TAG_typedef, name: "uint_least16_t", file: !552, line: 34, baseType: !541)
!563 = !DIImportedEntity(tag: DW_TAG_imported_declaration, scope: !47, entity: !564, file: !527, line: 169)
!564 = !DIDerivedType(tag: DW_TAG_typedef, name: "uint_least32_t", file: !552, line: 35, baseType: !545)
!565 = !DIImportedEntity(tag: DW_TAG_imported_declaration, scope: !47, entity: !566, file: !527, line: 170)
!566 = !DIDerivedType(tag: DW_TAG_typedef, name: "uint_least64_t", file: !552, line: 36, baseType: !548)
!567 = !DIImportedEntity(tag: DW_TAG_imported_declaration, scope: !47, entity: !568, file: !527, line: 172)
!568 = !DIDerivedType(tag: DW_TAG_typedef, name: "int_fast8_t", file: !552, line: 40, baseType: !524)
!569 = !DIImportedEntity(tag: DW_TAG_imported_declaration, scope: !47, entity: !570, file: !527, line: 173)
!570 = !DIDerivedType(tag: DW_TAG_typedef, name: "int_fast16_t", file: !552, line: 41, baseType: !529)
!571 = !DIImportedEntity(tag: DW_TAG_imported_declaration, scope: !47, entity: !572, file: !527, line: 174)
!572 = !DIDerivedType(tag: DW_TAG_typedef, name: "int_fast32_t", file: !552, line: 42, baseType: !532)
!573 = !DIImportedEntity(tag: DW_TAG_imported_declaration, scope: !47, entity: !574, file: !527, line: 175)
!574 = !DIDerivedType(tag: DW_TAG_typedef, name: "int_fast64_t", file: !552, line: 43, baseType: !535)
!575 = !DIImportedEntity(tag: DW_TAG_imported_declaration, scope: !47, entity: !576, file: !527, line: 177)
!576 = !DIDerivedType(tag: DW_TAG_typedef, name: "uint_fast8_t", file: !552, line: 44, baseType: !538)
!577 = !DIImportedEntity(tag: DW_TAG_imported_declaration, scope: !47, entity: !578, file: !527, line: 178)
!578 = !DIDerivedType(tag: DW_TAG_typedef, name: "uint_fast16_t", file: !552, line: 45, baseType: !541)
!579 = !DIImportedEntity(tag: DW_TAG_imported_declaration, scope: !47, entity: !580, file: !527, line: 179)
!580 = !DIDerivedType(tag: DW_TAG_typedef, name: "uint_fast32_t", file: !552, line: 46, baseType: !545)
!581 = !DIImportedEntity(tag: DW_TAG_imported_declaration, scope: !47, entity: !582, file: !527, line: 180)
!582 = !DIDerivedType(tag: DW_TAG_typedef, name: "uint_fast64_t", file: !552, line: 47, baseType: !548)
!583 = !DIImportedEntity(tag: DW_TAG_imported_declaration, scope: !47, entity: !584, file: !527, line: 182)
!584 = !DIDerivedType(tag: DW_TAG_typedef, name: "intptr_t", file: !585, line: 32, baseType: !586)
!585 = !DIFile(filename: "/Applications/Xcode.app/Contents/Developer/Platforms/MacOSX.platform/Developer/SDKs/MacOSX12.1.sdk/usr/include/sys/_types/_intptr_t.h", directory: "")
!586 = !DIDerivedType(tag: DW_TAG_typedef, name: "__darwin_intptr_t", file: !11, line: 51, baseType: !62)
!587 = !DIImportedEntity(tag: DW_TAG_imported_declaration, scope: !47, entity: !588, file: !527, line: 183)
!588 = !DIDerivedType(tag: DW_TAG_typedef, name: "uintptr_t", file: !589, line: 34, baseType: !12)
!589 = !DIFile(filename: "/Applications/Xcode.app/Contents/Developer/Platforms/MacOSX.platform/Developer/SDKs/MacOSX12.1.sdk/usr/include/sys/_types/_uintptr_t.h", directory: "")
!590 = !DIImportedEntity(tag: DW_TAG_imported_declaration, scope: !47, entity: !591, file: !527, line: 185)
!591 = !DIDerivedType(tag: DW_TAG_typedef, name: "intmax_t", file: !592, line: 32, baseType: !62)
!592 = !DIFile(filename: "/Applications/Xcode.app/Contents/Developer/Platforms/MacOSX.platform/Developer/SDKs/MacOSX12.1.sdk/usr/include/_types/_intmax_t.h", directory: "")
!593 = !DIImportedEntity(tag: DW_TAG_imported_declaration, scope: !47, entity: !594, file: !527, line: 186)
!594 = !DIDerivedType(tag: DW_TAG_typedef, name: "uintmax_t", file: !595, line: 32, baseType: !12)
!595 = !DIFile(filename: "/Applications/Xcode.app/Contents/Developer/Platforms/MacOSX.platform/Developer/SDKs/MacOSX12.1.sdk/usr/include/_types/_uintmax_t.h", directory: "")
!596 = !DIImportedEntity(tag: DW_TAG_imported_module, scope: !597, entity: !598, file: !600, line: 606)
!597 = !DINamespace(name: "chrono", scope: !47)
!598 = !DINamespace(name: "chrono_literals", scope: !599, exportSymbols: true)
!599 = !DINamespace(name: "literals", scope: !47, exportSymbols: true)
!600 = !DIFile(filename: "/usr/local/bin/../include/c++/v1/__chrono/duration.h", directory: "")
!601 = !DIImportedEntity(tag: DW_TAG_imported_declaration, scope: !47, entity: !602, file: !607, line: 324)
!602 = !DISubprogram(name: "isinf", linkageName: "_Z5isinfe", scope: !603, file: !603, line: 514, type: !604, flags: DIFlagPrototyped, spFlags: 0)
!603 = !DIFile(filename: "/usr/local/bin/../include/c++/v1/math.h", directory: "")
!604 = !DISubroutineType(types: !605)
!605 = !{!606, !15}
!606 = !DIBasicType(name: "bool", size: 8, encoding: DW_ATE_boolean)
!607 = !DIFile(filename: "/usr/local/bin/../include/c++/v1/cmath", directory: "")
!608 = !DIImportedEntity(tag: DW_TAG_imported_declaration, scope: !47, entity: !609, file: !607, line: 325)
!609 = !DISubprogram(name: "isnan", linkageName: "_Z5isnane", scope: !603, file: !603, line: 562, type: !604, flags: DIFlagPrototyped, spFlags: 0)
!610 = !DIImportedEntity(tag: DW_TAG_imported_declaration, scope: !47, entity: !611, file: !607, line: 335)
!611 = !DIDerivedType(tag: DW_TAG_typedef, name: "float_t", file: !612, line: 44, baseType: !100)
!612 = !DIFile(filename: "/Applications/Xcode.app/Contents/Developer/Platforms/MacOSX.platform/Developer/SDKs/MacOSX12.1.sdk/usr/include/math.h", directory: "")
!613 = !DIImportedEntity(tag: DW_TAG_imported_declaration, scope: !47, entity: !614, file: !607, line: 336)
!614 = !DIDerivedType(tag: DW_TAG_typedef, name: "double_t", file: !612, line: 45, baseType: !74)
!615 = !DIImportedEntity(tag: DW_TAG_imported_declaration, scope: !47, entity: !183, file: !607, line: 338)
!616 = !DIImportedEntity(tag: DW_TAG_imported_declaration, scope: !47, entity: !617, file: !607, line: 341)
!617 = !DISubprogram(name: "acosf", scope: !612, file: !612, line: 308, type: !618, flags: DIFlagPrototyped, spFlags: 0)
!618 = !DISubroutineType(types: !619)
!619 = !{!100, !100}
!620 = !DIImportedEntity(tag: DW_TAG_imported_declaration, scope: !47, entity: !621, file: !607, line: 343)
!621 = !DISubprogram(name: "asinf", scope: !612, file: !612, line: 312, type: !618, flags: DIFlagPrototyped, spFlags: 0)
!622 = !DIImportedEntity(tag: DW_TAG_imported_declaration, scope: !47, entity: !623, file: !607, line: 345)
!623 = !DISubprogram(name: "atanf", scope: !612, file: !612, line: 316, type: !618, flags: DIFlagPrototyped, spFlags: 0)
!624 = !DIImportedEntity(tag: DW_TAG_imported_declaration, scope: !47, entity: !625, file: !607, line: 347)
!625 = !DISubprogram(name: "atan2f", scope: !612, file: !612, line: 320, type: !626, flags: DIFlagPrototyped, spFlags: 0)
!626 = !DISubroutineType(types: !627)
!627 = !{!100, !100, !100}
!628 = !DIImportedEntity(tag: DW_TAG_imported_declaration, scope: !47, entity: !629, file: !607, line: 349)
!629 = !DISubprogram(name: "ceilf", scope: !612, file: !612, line: 455, type: !618, flags: DIFlagPrototyped, spFlags: 0)
!630 = !DIImportedEntity(tag: DW_TAG_imported_declaration, scope: !47, entity: !631, file: !607, line: 351)
!631 = !DISubprogram(name: "cosf", scope: !612, file: !612, line: 324, type: !618, flags: DIFlagPrototyped, spFlags: 0)
!632 = !DIImportedEntity(tag: DW_TAG_imported_declaration, scope: !47, entity: !633, file: !607, line: 353)
!633 = !DISubprogram(name: "coshf", scope: !612, file: !612, line: 348, type: !618, flags: DIFlagPrototyped, spFlags: 0)
!634 = !DIImportedEntity(tag: DW_TAG_imported_declaration, scope: !47, entity: !635, file: !607, line: 356)
!635 = !DISubprogram(name: "expf", scope: !612, file: !612, line: 360, type: !618, flags: DIFlagPrototyped, spFlags: 0)
!636 = !DIImportedEntity(tag: DW_TAG_imported_declaration, scope: !47, entity: !637, file: !607, line: 359)
!637 = !DISubprogram(name: "fabsf", scope: !612, file: !612, line: 416, type: !618, flags: DIFlagPrototyped, spFlags: 0)
!638 = !DIImportedEntity(tag: DW_TAG_imported_declaration, scope: !47, entity: !639, file: !607, line: 361)
!639 = !DISubprogram(name: "floorf", scope: !612, file: !612, line: 459, type: !618, flags: DIFlagPrototyped, spFlags: 0)
!640 = !DIImportedEntity(tag: DW_TAG_imported_declaration, scope: !47, entity: !641, file: !607, line: 364)
!641 = !DISubprogram(name: "fmodf", scope: !612, file: !612, line: 499, type: !626, flags: DIFlagPrototyped, spFlags: 0)
!642 = !DIImportedEntity(tag: DW_TAG_imported_declaration, scope: !47, entity: !643, file: !607, line: 367)
!643 = !DISubprogram(name: "frexpf", scope: !612, file: !612, line: 400, type: !644, flags: DIFlagPrototyped, spFlags: 0)
!644 = !DISubroutineType(types: !645)
!645 = !{!100, !100, !7}
!646 = !DIImportedEntity(tag: DW_TAG_imported_declaration, scope: !47, entity: !647, file: !607, line: 369)
!647 = !DISubprogram(name: "ldexpf", scope: !612, file: !612, line: 396, type: !648, flags: DIFlagPrototyped, spFlags: 0)
!648 = !DISubroutineType(types: !649)
!649 = !{!100, !100, !6}
!650 = !DIImportedEntity(tag: DW_TAG_imported_declaration, scope: !47, entity: !651, file: !607, line: 372)
!651 = !DISubprogram(name: "logf", scope: !612, file: !612, line: 372, type: !618, flags: DIFlagPrototyped, spFlags: 0)
!652 = !DIImportedEntity(tag: DW_TAG_imported_declaration, scope: !47, entity: !653, file: !607, line: 375)
!653 = !DISubprogram(name: "log10f", scope: !612, file: !612, line: 376, type: !618, flags: DIFlagPrototyped, spFlags: 0)
!654 = !DIImportedEntity(tag: DW_TAG_imported_declaration, scope: !47, entity: !655, file: !607, line: 376)
!655 = !DISubprogram(name: "modf", linkageName: "_Z4modfePe", scope: !603, file: !603, line: 995, type: !656, flags: DIFlagPrototyped, spFlags: 0)
!656 = !DISubroutineType(types: !657)
!657 = !{!15, !15, !658}
!658 = !DIDerivedType(tag: DW_TAG_pointer_type, baseType: !15, size: 64)
!659 = !DIImportedEntity(tag: DW_TAG_imported_declaration, scope: !47, entity: !660, file: !607, line: 377)
!660 = !DISubprogram(name: "modff", scope: !612, file: !612, line: 392, type: !661, flags: DIFlagPrototyped, spFlags: 0)
!661 = !DISubroutineType(types: !662)
!662 = !{!100, !100, !663}
!663 = !DIDerivedType(tag: DW_TAG_pointer_type, baseType: !100, size: 64)
!664 = !DIImportedEntity(tag: DW_TAG_imported_declaration, scope: !47, entity: !665, file: !607, line: 380)
!665 = !DISubprogram(name: "powf", scope: !612, file: !612, line: 428, type: !626, flags: DIFlagPrototyped, spFlags: 0)
!666 = !DIImportedEntity(tag: DW_TAG_imported_declaration, scope: !47, entity: !667, file: !607, line: 383)
!667 = !DISubprogram(name: "sinf", scope: !612, file: !612, line: 328, type: !618, flags: DIFlagPrototyped, spFlags: 0)
!668 = !DIImportedEntity(tag: DW_TAG_imported_declaration, scope: !47, entity: !669, file: !607, line: 385)
!669 = !DISubprogram(name: "sinhf", scope: !612, file: !612, line: 352, type: !618, flags: DIFlagPrototyped, spFlags: 0)
!670 = !DIImportedEntity(tag: DW_TAG_imported_declaration, scope: !47, entity: !671, file: !607, line: 388)
!671 = !DISubprogram(name: "sqrtf", scope: !612, file: !612, line: 432, type: !618, flags: DIFlagPrototyped, spFlags: 0)
!672 = !DIImportedEntity(tag: DW_TAG_imported_declaration, scope: !47, entity: !673, file: !607, line: 390)
!673 = !DISubprogram(name: "tanf", scope: !612, file: !612, line: 332, type: !618, flags: DIFlagPrototyped, spFlags: 0)
!674 = !DIImportedEntity(tag: DW_TAG_imported_declaration, scope: !47, entity: !675, file: !607, line: 393)
!675 = !DISubprogram(name: "tanhf", scope: !612, file: !612, line: 356, type: !618, flags: DIFlagPrototyped, spFlags: 0)
!676 = !DIImportedEntity(tag: DW_TAG_imported_declaration, scope: !47, entity: !677, file: !607, line: 396)
!677 = !DISubprogram(name: "acoshf", scope: !612, file: !612, line: 336, type: !618, flags: DIFlagPrototyped, spFlags: 0)
!678 = !DIImportedEntity(tag: DW_TAG_imported_declaration, scope: !47, entity: !679, file: !607, line: 398)
!679 = !DISubprogram(name: "asinhf", scope: !612, file: !612, line: 340, type: !618, flags: DIFlagPrototyped, spFlags: 0)
!680 = !DIImportedEntity(tag: DW_TAG_imported_declaration, scope: !47, entity: !681, file: !607, line: 400)
!681 = !DISubprogram(name: "atanhf", scope: !612, file: !612, line: 344, type: !618, flags: DIFlagPrototyped, spFlags: 0)
!682 = !DIImportedEntity(tag: DW_TAG_imported_declaration, scope: !47, entity: !683, file: !607, line: 402)
!683 = !DISubprogram(name: "cbrtf", scope: !612, file: !612, line: 420, type: !618, flags: DIFlagPrototyped, spFlags: 0)
!684 = !DIImportedEntity(tag: DW_TAG_imported_declaration, scope: !47, entity: !685, file: !607, line: 405)
!685 = !DISubprogram(name: "copysignf", scope: !612, file: !612, line: 511, type: !626, flags: DIFlagPrototyped, spFlags: 0)
!686 = !DIImportedEntity(tag: DW_TAG_imported_declaration, scope: !47, entity: !687, file: !607, line: 408)
!687 = !DISubprogram(name: "erff", scope: !612, file: !612, line: 436, type: !618, flags: DIFlagPrototyped, spFlags: 0)
!688 = !DIImportedEntity(tag: DW_TAG_imported_declaration, scope: !47, entity: !689, file: !607, line: 410)
!689 = !DISubprogram(name: "erfcf", scope: !612, file: !612, line: 440, type: !618, flags: DIFlagPrototyped, spFlags: 0)
!690 = !DIImportedEntity(tag: DW_TAG_imported_declaration, scope: !47, entity: !691, file: !607, line: 412)
!691 = !DISubprogram(name: "exp2f", scope: !612, file: !612, line: 364, type: !618, flags: DIFlagPrototyped, spFlags: 0)
!692 = !DIImportedEntity(tag: DW_TAG_imported_declaration, scope: !47, entity: !693, file: !607, line: 414)
!693 = !DISubprogram(name: "expm1f", scope: !612, file: !612, line: 368, type: !618, flags: DIFlagPrototyped, spFlags: 0)
!694 = !DIImportedEntity(tag: DW_TAG_imported_declaration, scope: !47, entity: !695, file: !607, line: 416)
!695 = !DISubprogram(name: "fdimf", scope: !612, file: !612, line: 527, type: !626, flags: DIFlagPrototyped, spFlags: 0)
!696 = !DIImportedEntity(tag: DW_TAG_imported_declaration, scope: !47, entity: !697, file: !607, line: 417)
!697 = !DISubprogram(name: "fmaf", scope: !612, file: !612, line: 539, type: !698, flags: DIFlagPrototyped, spFlags: 0)
!698 = !DISubroutineType(types: !699)
!699 = !{!100, !100, !100, !100}
!700 = !DIImportedEntity(tag: DW_TAG_imported_declaration, scope: !47, entity: !701, file: !607, line: 420)
!701 = !DISubprogram(name: "fmaxf", scope: !612, file: !612, line: 531, type: !626, flags: DIFlagPrototyped, spFlags: 0)
!702 = !DIImportedEntity(tag: DW_TAG_imported_declaration, scope: !47, entity: !703, file: !607, line: 422)
!703 = !DISubprogram(name: "fminf", scope: !612, file: !612, line: 535, type: !626, flags: DIFlagPrototyped, spFlags: 0)
!704 = !DIImportedEntity(tag: DW_TAG_imported_declaration, scope: !47, entity: !705, file: !607, line: 424)
!705 = !DISubprogram(name: "hypotf", scope: !612, file: !612, line: 424, type: !626, flags: DIFlagPrototyped, spFlags: 0)
!706 = !DIImportedEntity(tag: DW_TAG_imported_declaration, scope: !47, entity: !707, file: !607, line: 426)
!707 = !DISubprogram(name: "ilogbf", scope: !612, file: !612, line: 404, type: !708, flags: DIFlagPrototyped, spFlags: 0)
!708 = !DISubroutineType(types: !709)
!709 = !{!6, !100}
!710 = !DIImportedEntity(tag: DW_TAG_imported_declaration, scope: !47, entity: !711, file: !607, line: 428)
!711 = !DISubprogram(name: "lgammaf", scope: !612, file: !612, line: 447, type: !618, flags: DIFlagPrototyped, spFlags: 0)
!712 = !DIImportedEntity(tag: DW_TAG_imported_declaration, scope: !47, entity: !713, file: !607, line: 430)
!713 = !DISubprogram(name: "llrintf", scope: !612, file: !612, line: 486, type: !714, flags: DIFlagPrototyped, spFlags: 0)
!714 = !DISubroutineType(types: !715)
!715 = !{!20, !100}
!716 = !DIImportedEntity(tag: DW_TAG_imported_declaration, scope: !47, entity: !717, file: !607, line: 432)
!717 = !DISubprogram(name: "llroundf", scope: !612, file: !612, line: 490, type: !714, flags: DIFlagPrototyped, spFlags: 0)
!718 = !DIImportedEntity(tag: DW_TAG_imported_declaration, scope: !47, entity: !719, file: !607, line: 434)
!719 = !DISubprogram(name: "log1pf", scope: !612, file: !612, line: 384, type: !618, flags: DIFlagPrototyped, spFlags: 0)
!720 = !DIImportedEntity(tag: DW_TAG_imported_declaration, scope: !47, entity: !721, file: !607, line: 436)
!721 = !DISubprogram(name: "log2f", scope: !612, file: !612, line: 380, type: !618, flags: DIFlagPrototyped, spFlags: 0)
!722 = !DIImportedEntity(tag: DW_TAG_imported_declaration, scope: !47, entity: !723, file: !607, line: 438)
!723 = !DISubprogram(name: "logbf", scope: !612, file: !612, line: 388, type: !618, flags: DIFlagPrototyped, spFlags: 0)
!724 = !DIImportedEntity(tag: DW_TAG_imported_declaration, scope: !47, entity: !725, file: !607, line: 440)
!725 = !DISubprogram(name: "lrintf", scope: !612, file: !612, line: 471, type: !726, flags: DIFlagPrototyped, spFlags: 0)
!726 = !DISubroutineType(types: !727)
!727 = !{!62, !100}
!728 = !DIImportedEntity(tag: DW_TAG_imported_declaration, scope: !47, entity: !729, file: !607, line: 442)
!729 = !DISubprogram(name: "lroundf", scope: !612, file: !612, line: 479, type: !726, flags: DIFlagPrototyped, spFlags: 0)
!730 = !DIImportedEntity(tag: DW_TAG_imported_declaration, scope: !47, entity: !731, file: !607, line: 444)
!731 = !DISubprogram(name: "nan", scope: !612, file: !612, line: 516, type: !72, flags: DIFlagPrototyped, spFlags: 0)
!732 = !DIImportedEntity(tag: DW_TAG_imported_declaration, scope: !47, entity: !733, file: !607, line: 445)
!733 = !DISubprogram(name: "nanf", scope: !612, file: !612, line: 515, type: !734, flags: DIFlagPrototyped, spFlags: 0)
!734 = !DISubroutineType(types: !735)
!735 = !{!100, !75}
!736 = !DIImportedEntity(tag: DW_TAG_imported_declaration, scope: !47, entity: !737, file: !607, line: 448)
!737 = !DISubprogram(name: "nearbyintf", scope: !612, file: !612, line: 463, type: !618, flags: DIFlagPrototyped, spFlags: 0)
!738 = !DIImportedEntity(tag: DW_TAG_imported_declaration, scope: !47, entity: !739, file: !607, line: 450)
!739 = !DISubprogram(name: "nextafterf", scope: !612, file: !612, line: 519, type: !626, flags: DIFlagPrototyped, spFlags: 0)
!740 = !DIImportedEntity(tag: DW_TAG_imported_declaration, scope: !47, entity: !741, file: !607, line: 452)
!741 = !DISubprogram(name: "nexttowardf", scope: !612, file: !612, line: 524, type: !742, flags: DIFlagPrototyped, spFlags: 0)
!742 = !DISubroutineType(types: !743)
!743 = !{!100, !100, !15}
!744 = !DIImportedEntity(tag: DW_TAG_imported_declaration, scope: !47, entity: !745, file: !607, line: 454)
!745 = !DISubprogram(name: "remainderf", scope: !612, file: !612, line: 503, type: !626, flags: DIFlagPrototyped, spFlags: 0)
!746 = !DIImportedEntity(tag: DW_TAG_imported_declaration, scope: !47, entity: !747, file: !607, line: 456)
!747 = !DISubprogram(name: "remquof", scope: !612, file: !612, line: 507, type: !748, flags: DIFlagPrototyped, spFlags: 0)
!748 = !DISubroutineType(types: !749)
!749 = !{!100, !100, !100, !7}
!750 = !DIImportedEntity(tag: DW_TAG_imported_declaration, scope: !47, entity: !751, file: !607, line: 458)
!751 = !DISubprogram(name: "rintf", scope: !612, file: !612, line: 467, type: !618, flags: DIFlagPrototyped, spFlags: 0)
!752 = !DIImportedEntity(tag: DW_TAG_imported_declaration, scope: !47, entity: !753, file: !607, line: 460)
!753 = !DISubprogram(name: "roundf", scope: !612, file: !612, line: 475, type: !618, flags: DIFlagPrototyped, spFlags: 0)
!754 = !DIImportedEntity(tag: DW_TAG_imported_declaration, scope: !47, entity: !755, file: !607, line: 462)
!755 = !DISubprogram(name: "scalblnf", scope: !612, file: !612, line: 412, type: !756, flags: DIFlagPrototyped, spFlags: 0)
!756 = !DISubroutineType(types: !757)
!757 = !{!100, !100, !62}
!758 = !DIImportedEntity(tag: DW_TAG_imported_declaration, scope: !47, entity: !759, file: !607, line: 464)
!759 = !DISubprogram(name: "scalbnf", scope: !612, file: !612, line: 408, type: !648, flags: DIFlagPrototyped, spFlags: 0)
!760 = !DIImportedEntity(tag: DW_TAG_imported_declaration, scope: !47, entity: !761, file: !607, line: 466)
!761 = !DISubprogram(name: "tgammaf", scope: !612, file: !612, line: 451, type: !618, flags: DIFlagPrototyped, spFlags: 0)
!762 = !DIImportedEntity(tag: DW_TAG_imported_declaration, scope: !47, entity: !763, file: !607, line: 468)
!763 = !DISubprogram(name: "truncf", scope: !612, file: !612, line: 495, type: !618, flags: DIFlagPrototyped, spFlags: 0)
!764 = !DIImportedEntity(tag: DW_TAG_imported_declaration, scope: !47, entity: !765, file: !607, line: 470)
!765 = !DISubprogram(name: "acosl", scope: !612, file: !612, line: 310, type: !185, flags: DIFlagPrototyped, spFlags: 0)
!766 = !DIImportedEntity(tag: DW_TAG_imported_declaration, scope: !47, entity: !767, file: !607, line: 471)
!767 = !DISubprogram(name: "asinl", scope: !612, file: !612, line: 314, type: !185, flags: DIFlagPrototyped, spFlags: 0)
!768 = !DIImportedEntity(tag: DW_TAG_imported_declaration, scope: !47, entity: !769, file: !607, line: 472)
!769 = !DISubprogram(name: "atanl", scope: !612, file: !612, line: 318, type: !185, flags: DIFlagPrototyped, spFlags: 0)
!770 = !DIImportedEntity(tag: DW_TAG_imported_declaration, scope: !47, entity: !771, file: !607, line: 473)
!771 = !DISubprogram(name: "atan2l", scope: !612, file: !612, line: 322, type: !772, flags: DIFlagPrototyped, spFlags: 0)
!772 = !DISubroutineType(types: !773)
!773 = !{!15, !15, !15}
!774 = !DIImportedEntity(tag: DW_TAG_imported_declaration, scope: !47, entity: !775, file: !607, line: 474)
!775 = !DISubprogram(name: "ceill", scope: !612, file: !612, line: 457, type: !185, flags: DIFlagPrototyped, spFlags: 0)
!776 = !DIImportedEntity(tag: DW_TAG_imported_declaration, scope: !47, entity: !777, file: !607, line: 475)
!777 = !DISubprogram(name: "cosl", scope: !612, file: !612, line: 326, type: !185, flags: DIFlagPrototyped, spFlags: 0)
!778 = !DIImportedEntity(tag: DW_TAG_imported_declaration, scope: !47, entity: !779, file: !607, line: 476)
!779 = !DISubprogram(name: "coshl", scope: !612, file: !612, line: 350, type: !185, flags: DIFlagPrototyped, spFlags: 0)
!780 = !DIImportedEntity(tag: DW_TAG_imported_declaration, scope: !47, entity: !781, file: !607, line: 477)
!781 = !DISubprogram(name: "expl", scope: !612, file: !612, line: 362, type: !185, flags: DIFlagPrototyped, spFlags: 0)
!782 = !DIImportedEntity(tag: DW_TAG_imported_declaration, scope: !47, entity: !783, file: !607, line: 478)
!783 = !DISubprogram(name: "fabsl", scope: !612, file: !612, line: 418, type: !185, flags: DIFlagPrototyped, spFlags: 0)
!784 = !DIImportedEntity(tag: DW_TAG_imported_declaration, scope: !47, entity: !785, file: !607, line: 479)
!785 = !DISubprogram(name: "floorl", scope: !612, file: !612, line: 461, type: !185, flags: DIFlagPrototyped, spFlags: 0)
!786 = !DIImportedEntity(tag: DW_TAG_imported_declaration, scope: !47, entity: !787, file: !607, line: 480)
!787 = !DISubprogram(name: "fmodl", scope: !612, file: !612, line: 501, type: !772, flags: DIFlagPrototyped, spFlags: 0)
!788 = !DIImportedEntity(tag: DW_TAG_imported_declaration, scope: !47, entity: !789, file: !607, line: 481)
!789 = !DISubprogram(name: "frexpl", scope: !612, file: !612, line: 402, type: !790, flags: DIFlagPrototyped, spFlags: 0)
!790 = !DISubroutineType(types: !791)
!791 = !{!15, !15, !7}
!792 = !DIImportedEntity(tag: DW_TAG_imported_declaration, scope: !47, entity: !793, file: !607, line: 482)
!793 = !DISubprogram(name: "ldexpl", scope: !612, file: !612, line: 398, type: !794, flags: DIFlagPrototyped, spFlags: 0)
!794 = !DISubroutineType(types: !795)
!795 = !{!15, !15, !6}
!796 = !DIImportedEntity(tag: DW_TAG_imported_declaration, scope: !47, entity: !797, file: !607, line: 483)
!797 = !DISubprogram(name: "logl", scope: !612, file: !612, line: 374, type: !185, flags: DIFlagPrototyped, spFlags: 0)
!798 = !DIImportedEntity(tag: DW_TAG_imported_declaration, scope: !47, entity: !799, file: !607, line: 484)
!799 = !DISubprogram(name: "log10l", scope: !612, file: !612, line: 378, type: !185, flags: DIFlagPrototyped, spFlags: 0)
!800 = !DIImportedEntity(tag: DW_TAG_imported_declaration, scope: !47, entity: !801, file: !607, line: 485)
!801 = !DISubprogram(name: "modfl", scope: !612, file: !612, line: 394, type: !656, flags: DIFlagPrototyped, spFlags: 0)
!802 = !DIImportedEntity(tag: DW_TAG_imported_declaration, scope: !47, entity: !803, file: !607, line: 486)
!803 = !DISubprogram(name: "powl", scope: !612, file: !612, line: 430, type: !772, flags: DIFlagPrototyped, spFlags: 0)
!804 = !DIImportedEntity(tag: DW_TAG_imported_declaration, scope: !47, entity: !805, file: !607, line: 487)
!805 = !DISubprogram(name: "sinl", scope: !612, file: !612, line: 330, type: !185, flags: DIFlagPrototyped, spFlags: 0)
!806 = !DIImportedEntity(tag: DW_TAG_imported_declaration, scope: !47, entity: !807, file: !607, line: 488)
!807 = !DISubprogram(name: "sinhl", scope: !612, file: !612, line: 354, type: !185, flags: DIFlagPrototyped, spFlags: 0)
!808 = !DIImportedEntity(tag: DW_TAG_imported_declaration, scope: !47, entity: !809, file: !607, line: 489)
!809 = !DISubprogram(name: "sqrtl", scope: !612, file: !612, line: 434, type: !185, flags: DIFlagPrototyped, spFlags: 0)
!810 = !DIImportedEntity(tag: DW_TAG_imported_declaration, scope: !47, entity: !811, file: !607, line: 490)
!811 = !DISubprogram(name: "tanl", scope: !612, file: !612, line: 334, type: !185, flags: DIFlagPrototyped, spFlags: 0)
!812 = !DIImportedEntity(tag: DW_TAG_imported_declaration, scope: !47, entity: !813, file: !607, line: 492)
!813 = !DISubprogram(name: "tanhl", scope: !612, file: !612, line: 358, type: !185, flags: DIFlagPrototyped, spFlags: 0)
!814 = !DIImportedEntity(tag: DW_TAG_imported_declaration, scope: !47, entity: !815, file: !607, line: 493)
!815 = !DISubprogram(name: "acoshl", scope: !612, file: !612, line: 338, type: !185, flags: DIFlagPrototyped, spFlags: 0)
!816 = !DIImportedEntity(tag: DW_TAG_imported_declaration, scope: !47, entity: !817, file: !607, line: 494)
!817 = !DISubprogram(name: "asinhl", scope: !612, file: !612, line: 342, type: !185, flags: DIFlagPrototyped, spFlags: 0)
!818 = !DIImportedEntity(tag: DW_TAG_imported_declaration, scope: !47, entity: !819, file: !607, line: 495)
!819 = !DISubprogram(name: "atanhl", scope: !612, file: !612, line: 346, type: !185, flags: DIFlagPrototyped, spFlags: 0)
!820 = !DIImportedEntity(tag: DW_TAG_imported_declaration, scope: !47, entity: !821, file: !607, line: 496)
!821 = !DISubprogram(name: "cbrtl", scope: !612, file: !612, line: 422, type: !185, flags: DIFlagPrototyped, spFlags: 0)
!822 = !DIImportedEntity(tag: DW_TAG_imported_declaration, scope: !47, entity: !823, file: !607, line: 498)
!823 = !DISubprogram(name: "copysignl", scope: !612, file: !612, line: 513, type: !772, flags: DIFlagPrototyped, spFlags: 0)
!824 = !DIImportedEntity(tag: DW_TAG_imported_declaration, scope: !47, entity: !825, file: !607, line: 500)
!825 = !DISubprogram(name: "erfl", scope: !612, file: !612, line: 438, type: !185, flags: DIFlagPrototyped, spFlags: 0)
!826 = !DIImportedEntity(tag: DW_TAG_imported_declaration, scope: !47, entity: !827, file: !607, line: 501)
!827 = !DISubprogram(name: "erfcl", scope: !612, file: !612, line: 442, type: !185, flags: DIFlagPrototyped, spFlags: 0)
!828 = !DIImportedEntity(tag: DW_TAG_imported_declaration, scope: !47, entity: !829, file: !607, line: 502)
!829 = !DISubprogram(name: "exp2l", scope: !612, file: !612, line: 366, type: !185, flags: DIFlagPrototyped, spFlags: 0)
!830 = !DIImportedEntity(tag: DW_TAG_imported_declaration, scope: !47, entity: !831, file: !607, line: 503)
!831 = !DISubprogram(name: "expm1l", scope: !612, file: !612, line: 370, type: !185, flags: DIFlagPrototyped, spFlags: 0)
!832 = !DIImportedEntity(tag: DW_TAG_imported_declaration, scope: !47, entity: !833, file: !607, line: 504)
!833 = !DISubprogram(name: "fdiml", scope: !612, file: !612, line: 529, type: !772, flags: DIFlagPrototyped, spFlags: 0)
!834 = !DIImportedEntity(tag: DW_TAG_imported_declaration, scope: !47, entity: !835, file: !607, line: 505)
!835 = !DISubprogram(name: "fmal", scope: !612, file: !612, line: 541, type: !836, flags: DIFlagPrototyped, spFlags: 0)
!836 = !DISubroutineType(types: !837)
!837 = !{!15, !15, !15, !15}
!838 = !DIImportedEntity(tag: DW_TAG_imported_declaration, scope: !47, entity: !839, file: !607, line: 506)
!839 = !DISubprogram(name: "fmaxl", scope: !612, file: !612, line: 533, type: !772, flags: DIFlagPrototyped, spFlags: 0)
!840 = !DIImportedEntity(tag: DW_TAG_imported_declaration, scope: !47, entity: !841, file: !607, line: 507)
!841 = !DISubprogram(name: "fminl", scope: !612, file: !612, line: 537, type: !772, flags: DIFlagPrototyped, spFlags: 0)
!842 = !DIImportedEntity(tag: DW_TAG_imported_declaration, scope: !47, entity: !843, file: !607, line: 508)
!843 = !DISubprogram(name: "hypotl", scope: !612, file: !612, line: 426, type: !772, flags: DIFlagPrototyped, spFlags: 0)
!844 = !DIImportedEntity(tag: DW_TAG_imported_declaration, scope: !47, entity: !845, file: !607, line: 509)
!845 = !DISubprogram(name: "ilogbl", scope: !612, file: !612, line: 406, type: !846, flags: DIFlagPrototyped, spFlags: 0)
!846 = !DISubroutineType(types: !847)
!847 = !{!6, !15}
!848 = !DIImportedEntity(tag: DW_TAG_imported_declaration, scope: !47, entity: !849, file: !607, line: 510)
!849 = !DISubprogram(name: "lgammal", scope: !612, file: !612, line: 449, type: !185, flags: DIFlagPrototyped, spFlags: 0)
!850 = !DIImportedEntity(tag: DW_TAG_imported_declaration, scope: !47, entity: !851, file: !607, line: 511)
!851 = !DISubprogram(name: "llrintl", scope: !612, file: !612, line: 488, type: !852, flags: DIFlagPrototyped, spFlags: 0)
!852 = !DISubroutineType(types: !853)
!853 = !{!20, !15}
!854 = !DIImportedEntity(tag: DW_TAG_imported_declaration, scope: !47, entity: !855, file: !607, line: 512)
!855 = !DISubprogram(name: "llroundl", scope: !612, file: !612, line: 492, type: !852, flags: DIFlagPrototyped, spFlags: 0)
!856 = !DIImportedEntity(tag: DW_TAG_imported_declaration, scope: !47, entity: !857, file: !607, line: 513)
!857 = !DISubprogram(name: "log1pl", scope: !612, file: !612, line: 386, type: !185, flags: DIFlagPrototyped, spFlags: 0)
!858 = !DIImportedEntity(tag: DW_TAG_imported_declaration, scope: !47, entity: !859, file: !607, line: 514)
!859 = !DISubprogram(name: "log2l", scope: !612, file: !612, line: 382, type: !185, flags: DIFlagPrototyped, spFlags: 0)
!860 = !DIImportedEntity(tag: DW_TAG_imported_declaration, scope: !47, entity: !861, file: !607, line: 515)
!861 = !DISubprogram(name: "logbl", scope: !612, file: !612, line: 390, type: !185, flags: DIFlagPrototyped, spFlags: 0)
!862 = !DIImportedEntity(tag: DW_TAG_imported_declaration, scope: !47, entity: !863, file: !607, line: 516)
!863 = !DISubprogram(name: "lrintl", scope: !612, file: !612, line: 473, type: !864, flags: DIFlagPrototyped, spFlags: 0)
!864 = !DISubroutineType(types: !865)
!865 = !{!62, !15}
!866 = !DIImportedEntity(tag: DW_TAG_imported_declaration, scope: !47, entity: !867, file: !607, line: 517)
!867 = !DISubprogram(name: "lroundl", scope: !612, file: !612, line: 481, type: !864, flags: DIFlagPrototyped, spFlags: 0)
!868 = !DIImportedEntity(tag: DW_TAG_imported_declaration, scope: !47, entity: !869, file: !607, line: 518)
!869 = !DISubprogram(name: "nanl", scope: !612, file: !612, line: 517, type: !870, flags: DIFlagPrototyped, spFlags: 0)
!870 = !DISubroutineType(types: !871)
!871 = !{!15, !75}
!872 = !DIImportedEntity(tag: DW_TAG_imported_declaration, scope: !47, entity: !873, file: !607, line: 519)
!873 = !DISubprogram(name: "nearbyintl", scope: !612, file: !612, line: 465, type: !185, flags: DIFlagPrototyped, spFlags: 0)
!874 = !DIImportedEntity(tag: DW_TAG_imported_declaration, scope: !47, entity: !875, file: !607, line: 520)
!875 = !DISubprogram(name: "nextafterl", scope: !612, file: !612, line: 521, type: !772, flags: DIFlagPrototyped, spFlags: 0)
!876 = !DIImportedEntity(tag: DW_TAG_imported_declaration, scope: !47, entity: !877, file: !607, line: 521)
!877 = !DISubprogram(name: "nexttowardl", scope: !612, file: !612, line: 525, type: !772, flags: DIFlagPrototyped, spFlags: 0)
!878 = !DIImportedEntity(tag: DW_TAG_imported_declaration, scope: !47, entity: !879, file: !607, line: 522)
!879 = !DISubprogram(name: "remainderl", scope: !612, file: !612, line: 505, type: !772, flags: DIFlagPrototyped, spFlags: 0)
!880 = !DIImportedEntity(tag: DW_TAG_imported_declaration, scope: !47, entity: !881, file: !607, line: 523)
!881 = !DISubprogram(name: "remquol", scope: !612, file: !612, line: 509, type: !882, flags: DIFlagPrototyped, spFlags: 0)
!882 = !DISubroutineType(types: !883)
!883 = !{!15, !15, !15, !7}
!884 = !DIImportedEntity(tag: DW_TAG_imported_declaration, scope: !47, entity: !885, file: !607, line: 524)
!885 = !DISubprogram(name: "rintl", scope: !612, file: !612, line: 469, type: !185, flags: DIFlagPrototyped, spFlags: 0)
!886 = !DIImportedEntity(tag: DW_TAG_imported_declaration, scope: !47, entity: !887, file: !607, line: 525)
!887 = !DISubprogram(name: "roundl", scope: !612, file: !612, line: 477, type: !185, flags: DIFlagPrototyped, spFlags: 0)
!888 = !DIImportedEntity(tag: DW_TAG_imported_declaration, scope: !47, entity: !889, file: !607, line: 526)
!889 = !DISubprogram(name: "scalblnl", scope: !612, file: !612, line: 414, type: !890, flags: DIFlagPrototyped, spFlags: 0)
!890 = !DISubroutineType(types: !891)
!891 = !{!15, !15, !62}
!892 = !DIImportedEntity(tag: DW_TAG_imported_declaration, scope: !47, entity: !893, file: !607, line: 527)
!893 = !DISubprogram(name: "scalbnl", scope: !612, file: !612, line: 410, type: !794, flags: DIFlagPrototyped, spFlags: 0)
!894 = !DIImportedEntity(tag: DW_TAG_imported_declaration, scope: !47, entity: !895, file: !607, line: 528)
!895 = !DISubprogram(name: "tgammal", scope: !612, file: !612, line: 453, type: !185, flags: DIFlagPrototyped, spFlags: 0)
!896 = !DIImportedEntity(tag: DW_TAG_imported_declaration, scope: !47, entity: !897, file: !607, line: 529)
!897 = !DISubprogram(name: "truncl", scope: !612, file: !612, line: 497, type: !185, flags: DIFlagPrototyped, spFlags: 0)
!898 = !DIImportedEntity(tag: DW_TAG_imported_declaration, scope: !47, entity: !899, file: !901, line: 103)
!899 = !DISubprogram(name: "isalnum", linkageName: "_Z7isalnumi", scope: !900, file: !900, line: 212, type: !509, flags: DIFlagPrototyped, spFlags: 0)
!900 = !DIFile(filename: "/Applications/Xcode.app/Contents/Developer/Platforms/MacOSX.platform/Developer/SDKs/MacOSX12.1.sdk/usr/include/_ctype.h", directory: "")
!901 = !DIFile(filename: "/usr/local/bin/../include/c++/v1/cctype", directory: "")
!902 = !DIImportedEntity(tag: DW_TAG_imported_declaration, scope: !47, entity: !903, file: !901, line: 104)
!903 = !DISubprogram(name: "isalpha", linkageName: "_Z7isalphai", scope: !900, file: !900, line: 218, type: !509, flags: DIFlagPrototyped, spFlags: 0)
!904 = !DIImportedEntity(tag: DW_TAG_imported_declaration, scope: !47, entity: !905, file: !901, line: 105)
!905 = !DISubprogram(name: "isblank", linkageName: "_Z7isblanki", scope: !900, file: !900, line: 224, type: !509, flags: DIFlagPrototyped, spFlags: 0)
!906 = !DIImportedEntity(tag: DW_TAG_imported_declaration, scope: !47, entity: !907, file: !901, line: 106)
!907 = !DISubprogram(name: "iscntrl", linkageName: "_Z7iscntrli", scope: !900, file: !900, line: 230, type: !509, flags: DIFlagPrototyped, spFlags: 0)
!908 = !DIImportedEntity(tag: DW_TAG_imported_declaration, scope: !47, entity: !909, file: !901, line: 107)
!909 = !DISubprogram(name: "isdigit", linkageName: "_Z7isdigiti", scope: !900, file: !900, line: 237, type: !509, flags: DIFlagPrototyped, spFlags: 0)
!910 = !DIImportedEntity(tag: DW_TAG_imported_declaration, scope: !47, entity: !911, file: !901, line: 108)
!911 = !DISubprogram(name: "isgraph", linkageName: "_Z7isgraphi", scope: !900, file: !900, line: 243, type: !509, flags: DIFlagPrototyped, spFlags: 0)
!912 = !DIImportedEntity(tag: DW_TAG_imported_declaration, scope: !47, entity: !913, file: !901, line: 109)
!913 = !DISubprogram(name: "islower", linkageName: "_Z7isloweri", scope: !900, file: !900, line: 249, type: !509, flags: DIFlagPrototyped, spFlags: 0)
!914 = !DIImportedEntity(tag: DW_TAG_imported_declaration, scope: !47, entity: !915, file: !901, line: 110)
!915 = !DISubprogram(name: "isprint", linkageName: "_Z7isprinti", scope: !900, file: !900, line: 255, type: !509, flags: DIFlagPrototyped, spFlags: 0)
!916 = !DIImportedEntity(tag: DW_TAG_imported_declaration, scope: !47, entity: !917, file: !901, line: 111)
!917 = !DISubprogram(name: "ispunct", linkageName: "_Z7ispuncti", scope: !900, file: !900, line: 261, type: !509, flags: DIFlagPrototyped, spFlags: 0)
!918 = !DIImportedEntity(tag: DW_TAG_imported_declaration, scope: !47, entity: !919, file: !901, line: 112)
!919 = !DISubprogram(name: "isspace", linkageName: "_Z7isspacei", scope: !900, file: !900, line: 267, type: !509, flags: DIFlagPrototyped, spFlags: 0)
!920 = !DIImportedEntity(tag: DW_TAG_imported_declaration, scope: !47, entity: !921, file: !901, line: 113)
!921 = !DISubprogram(name: "isupper", linkageName: "_Z7isupperi", scope: !900, file: !900, line: 273, type: !509, flags: DIFlagPrototyped, spFlags: 0)
!922 = !DIImportedEntity(tag: DW_TAG_imported_declaration, scope: !47, entity: !923, file: !901, line: 114)
!923 = !DISubprogram(name: "isxdigit", linkageName: "_Z8isxdigiti", scope: !900, file: !900, line: 280, type: !509, flags: DIFlagPrototyped, spFlags: 0)
!924 = !DIImportedEntity(tag: DW_TAG_imported_declaration, scope: !47, entity: !925, file: !901, line: 115)
!925 = !DISubprogram(name: "tolower", linkageName: "_Z7toloweri", scope: !900, file: !900, line: 292, type: !509, flags: DIFlagPrototyped, spFlags: 0)
!926 = !DIImportedEntity(tag: DW_TAG_imported_declaration, scope: !47, entity: !927, file: !901, line: 116)
!927 = !DISubprogram(name: "toupper", linkageName: "_Z7toupperi", scope: !900, file: !900, line: 298, type: !509, flags: DIFlagPrototyped, spFlags: 0)
!928 = !DIImportedEntity(tag: DW_TAG_imported_declaration, scope: !13, entity: !929, file: !932, line: 51)
!929 = !DIDerivedType(tag: DW_TAG_typedef, name: "nullptr_t", scope: !48, file: !930, line: 56, baseType: !931)
!930 = !DIFile(filename: "/usr/local/bin/../include/c++/v1/__nullptr", directory: "")
!931 = !DIBasicType(tag: DW_TAG_unspecified_type, name: "decltype(nullptr)")
!932 = !DIFile(filename: "/usr/local/bin/../include/c++/v1/stddef.h", directory: "")
!933 = !DIImportedEntity(tag: DW_TAG_imported_declaration, scope: !47, entity: !934, file: !945, line: 40)
!934 = !DIDerivedType(tag: DW_TAG_typedef, name: "mbstate_t", file: !935, line: 32, baseType: !936)
!935 = !DIFile(filename: "/Applications/Xcode.app/Contents/Developer/Platforms/MacOSX.platform/Developer/SDKs/MacOSX12.1.sdk/usr/include/sys/_types/_mbstate_t.h", directory: "")
!936 = !DIDerivedType(tag: DW_TAG_typedef, name: "__darwin_mbstate_t", file: !11, line: 83, baseType: !937)
!937 = !DIDerivedType(tag: DW_TAG_typedef, name: "__mbstate_t", file: !11, line: 81, baseType: !938)
!938 = distinct !DICompositeType(tag: DW_TAG_union_type, file: !11, line: 78, size: 1024, flags: DIFlagTypePassByValue, elements: !939, identifier: "_ZTS11__mbstate_t")
!939 = !{!940, !944}
!940 = !DIDerivedType(tag: DW_TAG_member, name: "__mbstate8", scope: !938, file: !11, line: 79, baseType: !941, size: 1024)
!941 = !DICompositeType(tag: DW_TAG_array_type, baseType: !77, size: 1024, elements: !942)
!942 = !{!943}
!943 = !DISubrange(count: 128)
!944 = !DIDerivedType(tag: DW_TAG_member, name: "_mbstateL", scope: !938, file: !11, line: 80, baseType: !20, size: 64)
!945 = !DIFile(filename: "/usr/local/bin/../include/c++/v1/__mbstate_t.h", directory: "")
!946 = !DIImportedEntity(tag: DW_TAG_imported_declaration, scope: !47, entity: !8, file: !947, line: 68)
!947 = !DIFile(filename: "/usr/local/bin/../include/c++/v1/cstring", directory: "")
!948 = !DIImportedEntity(tag: DW_TAG_imported_declaration, scope: !47, entity: !949, file: !947, line: 69)
!949 = !DISubprogram(name: "memcpy", scope: !950, file: !950, line: 72, type: !951, flags: DIFlagPrototyped, spFlags: 0)
!950 = !DIFile(filename: "/Applications/Xcode.app/Contents/Developer/Platforms/MacOSX.platform/Developer/SDKs/MacOSX12.1.sdk/usr/include/string.h", directory: "")
!951 = !DISubroutineType(types: !952)
!952 = !{!135, !135, !173, !8}
!953 = !DIImportedEntity(tag: DW_TAG_imported_declaration, scope: !47, entity: !954, file: !947, line: 70)
!954 = !DISubprogram(name: "memmove", scope: !950, file: !950, line: 73, type: !951, flags: DIFlagPrototyped, spFlags: 0)
!955 = !DIImportedEntity(tag: DW_TAG_imported_declaration, scope: !47, entity: !956, file: !947, line: 71)
!956 = !DISubprogram(name: "strcpy", scope: !950, file: !950, line: 79, type: !957, flags: DIFlagPrototyped, spFlags: 0)
!957 = !DISubroutineType(types: !958)
!958 = !{!95, !95, !75}
!959 = !DIImportedEntity(tag: DW_TAG_imported_declaration, scope: !47, entity: !960, file: !947, line: 72)
!960 = !DISubprogram(name: "strncpy", scope: !950, file: !950, line: 85, type: !961, flags: DIFlagPrototyped, spFlags: 0)
!961 = !DISubroutineType(types: !962)
!962 = !{!95, !95, !75, !8}
!963 = !DIImportedEntity(tag: DW_TAG_imported_declaration, scope: !47, entity: !964, file: !947, line: 73)
!964 = !DISubprogram(name: "strcat", scope: !950, file: !950, line: 75, type: !957, flags: DIFlagPrototyped, spFlags: 0)
!965 = !DIImportedEntity(tag: DW_TAG_imported_declaration, scope: !47, entity: !966, file: !947, line: 74)
!966 = !DISubprogram(name: "strncat", scope: !950, file: !950, line: 83, type: !961, flags: DIFlagPrototyped, spFlags: 0)
!967 = !DIImportedEntity(tag: DW_TAG_imported_declaration, scope: !47, entity: !968, file: !947, line: 75)
!968 = !DISubprogram(name: "memcmp", scope: !950, file: !950, line: 71, type: !969, flags: DIFlagPrototyped, spFlags: 0)
!969 = !DISubroutineType(types: !970)
!970 = !{!6, !173, !173, !8}
!971 = !DIImportedEntity(tag: DW_TAG_imported_declaration, scope: !47, entity: !972, file: !947, line: 76)
!972 = !DISubprogram(name: "strcmp", scope: !950, file: !950, line: 77, type: !485, flags: DIFlagPrototyped, spFlags: 0)
!973 = !DIImportedEntity(tag: DW_TAG_imported_declaration, scope: !47, entity: !974, file: !947, line: 77)
!974 = !DISubprogram(name: "strncmp", scope: !950, file: !950, line: 84, type: !975, flags: DIFlagPrototyped, spFlags: 0)
!975 = !DISubroutineType(types: !976)
!976 = !{!6, !75, !75, !8}
!977 = !DIImportedEntity(tag: DW_TAG_imported_declaration, scope: !47, entity: !978, file: !947, line: 78)
!978 = !DISubprogram(name: "strcoll", scope: !950, file: !950, line: 78, type: !485, flags: DIFlagPrototyped, spFlags: 0)
!979 = !DIImportedEntity(tag: DW_TAG_imported_declaration, scope: !47, entity: !980, file: !947, line: 79)
!980 = !DISubprogram(name: "strxfrm", scope: !950, file: !950, line: 91, type: !981, flags: DIFlagPrototyped, spFlags: 0)
!981 = !DISubroutineType(types: !982)
!982 = !{!8, !95, !75, !8}
!983 = !DIImportedEntity(tag: DW_TAG_imported_declaration, scope: !47, entity: !984, file: !947, line: 80)
!984 = !DISubprogram(name: "memchr", linkageName: "_Z6memchrUa9enable_ifILb1EEPvim", scope: !985, file: !985, line: 98, type: !986, flags: DIFlagPrototyped, spFlags: 0)
!985 = !DIFile(filename: "/usr/local/bin/../include/c++/v1/string.h", directory: "")
!986 = !DISubroutineType(types: !987)
!987 = !{!135, !135, !6, !8}
!988 = !DIImportedEntity(tag: DW_TAG_imported_declaration, scope: !47, entity: !989, file: !947, line: 81)
!989 = !DISubprogram(name: "strchr", linkageName: "_Z6strchrUa9enable_ifILb1EEPci", scope: !985, file: !985, line: 77, type: !990, flags: DIFlagPrototyped, spFlags: 0)
!990 = !DISubroutineType(types: !991)
!991 = !{!95, !95, !6}
!992 = !DIImportedEntity(tag: DW_TAG_imported_declaration, scope: !47, entity: !993, file: !947, line: 82)
!993 = !DISubprogram(name: "strcspn", scope: !950, file: !950, line: 80, type: !994, flags: DIFlagPrototyped, spFlags: 0)
!994 = !DISubroutineType(types: !995)
!995 = !{!8, !75, !75}
!996 = !DIImportedEntity(tag: DW_TAG_imported_declaration, scope: !47, entity: !997, file: !947, line: 83)
!997 = !DISubprogram(name: "strpbrk", linkageName: "_Z7strpbrkUa9enable_ifILb1EEPcPKc", scope: !985, file: !985, line: 84, type: !957, flags: DIFlagPrototyped, spFlags: 0)
!998 = !DIImportedEntity(tag: DW_TAG_imported_declaration, scope: !47, entity: !999, file: !947, line: 84)
!999 = !DISubprogram(name: "strrchr", linkageName: "_Z7strrchrUa9enable_ifILb1EEPci", scope: !985, file: !985, line: 91, type: !990, flags: DIFlagPrototyped, spFlags: 0)
!1000 = !DIImportedEntity(tag: DW_TAG_imported_declaration, scope: !47, entity: !1001, file: !947, line: 85)
!1001 = !DISubprogram(name: "strspn", scope: !950, file: !950, line: 88, type: !994, flags: DIFlagPrototyped, spFlags: 0)
!1002 = !DIImportedEntity(tag: DW_TAG_imported_declaration, scope: !47, entity: !1003, file: !947, line: 86)
!1003 = !DISubprogram(name: "strstr", linkageName: "_Z6strstrUa9enable_ifILb1EEPcPKc", scope: !985, file: !985, line: 105, type: !957, flags: DIFlagPrototyped, spFlags: 0)
!1004 = !DIImportedEntity(tag: DW_TAG_imported_declaration, scope: !47, entity: !1005, file: !947, line: 87)
!1005 = !DISubprogram(name: "strtok", scope: !950, file: !950, line: 90, type: !957, flags: DIFlagPrototyped, spFlags: 0)
!1006 = !DIImportedEntity(tag: DW_TAG_imported_declaration, scope: !47, entity: !1007, file: !947, line: 88)
!1007 = !DISubprogram(name: "memset", scope: !950, file: !950, line: 74, type: !986, flags: DIFlagPrototyped, spFlags: 0)
!1008 = !DIImportedEntity(tag: DW_TAG_imported_declaration, scope: !47, entity: !1009, file: !947, line: 89)
!1009 = !DISubprogram(name: "strerror", linkageName: "\01_strerror", scope: !950, file: !950, line: 81, type: !1010, flags: DIFlagPrototyped, spFlags: 0)
!1010 = !DISubroutineType(types: !1011)
!1011 = !{!95, !6}
!1012 = !DIImportedEntity(tag: DW_TAG_imported_declaration, scope: !47, entity: !1013, file: !947, line: 90)
!1013 = !DISubprogram(name: "strlen", scope: !950, file: !950, line: 82, type: !1014, flags: DIFlagPrototyped, spFlags: 0)
!1014 = !DISubroutineType(types: !1015)
!1015 = !{!8, !75}
!1016 = !DIImportedEntity(tag: DW_TAG_imported_declaration, scope: !47, entity: !1017, file: !1020, line: 63)
!1017 = !DIDerivedType(tag: DW_TAG_typedef, name: "wint_t", file: !1018, line: 32, baseType: !1019)
!1018 = !DIFile(filename: "/Applications/Xcode.app/Contents/Developer/Platforms/MacOSX.platform/Developer/SDKs/MacOSX12.1.sdk/usr/include/sys/_types/_wint_t.h", directory: "")
!1019 = !DIDerivedType(tag: DW_TAG_typedef, name: "__darwin_wint_t", file: !11, line: 114, baseType: !6)
!1020 = !DIFile(filename: "/usr/local/bin/../include/c++/v1/cwctype", directory: "")
!1021 = !DIImportedEntity(tag: DW_TAG_imported_declaration, scope: !47, entity: !1022, file: !1020, line: 64)
!1022 = !DIDerivedType(tag: DW_TAG_typedef, name: "wctrans_t", file: !1023, line: 32, baseType: !1024)
!1023 = !DIFile(filename: "/Applications/Xcode.app/Contents/Developer/Platforms/MacOSX.platform/Developer/SDKs/MacOSX12.1.sdk/usr/include/_types/_wctrans_t.h", directory: "")
!1024 = !DIDerivedType(tag: DW_TAG_typedef, name: "__darwin_wctrans_t", file: !1025, line: 41, baseType: !6)
!1025 = !DIFile(filename: "/Applications/Xcode.app/Contents/Developer/Platforms/MacOSX.platform/Developer/SDKs/MacOSX12.1.sdk/usr/include/_types.h", directory: "")
!1026 = !DIImportedEntity(tag: DW_TAG_imported_declaration, scope: !47, entity: !1027, file: !1020, line: 65)
!1027 = !DIDerivedType(tag: DW_TAG_typedef, name: "wctype_t", file: !1028, line: 32, baseType: !1029)
!1028 = !DIFile(filename: "/Applications/Xcode.app/Contents/Developer/Platforms/MacOSX.platform/Developer/SDKs/MacOSX12.1.sdk/usr/include/_types/_wctype_t.h", directory: "")
!1029 = !DIDerivedType(tag: DW_TAG_typedef, name: "__darwin_wctype_t", file: !1025, line: 43, baseType: !1030)
!1030 = !DIDerivedType(tag: DW_TAG_typedef, name: "__uint32_t", file: !11, line: 47, baseType: !32)
!1031 = !DIImportedEntity(tag: DW_TAG_imported_declaration, scope: !47, entity: !1032, file: !1020, line: 66)
!1032 = !DISubprogram(name: "iswalnum", linkageName: "_Z8iswalnumi", scope: !1033, file: !1033, line: 51, type: !1034, flags: DIFlagPrototyped, spFlags: 0)
!1033 = !DIFile(filename: "/Applications/Xcode.app/Contents/Developer/Platforms/MacOSX.platform/Developer/SDKs/MacOSX12.1.sdk/usr/include/_wctype.h", directory: "")
!1034 = !DISubroutineType(types: !1035)
!1035 = !{!6, !1017}
!1036 = !DIImportedEntity(tag: DW_TAG_imported_declaration, scope: !47, entity: !1037, file: !1020, line: 67)
!1037 = !DISubprogram(name: "iswalpha", linkageName: "_Z8iswalphai", scope: !1033, file: !1033, line: 57, type: !1034, flags: DIFlagPrototyped, spFlags: 0)
!1038 = !DIImportedEntity(tag: DW_TAG_imported_declaration, scope: !47, entity: !1039, file: !1020, line: 68)
!1039 = !DISubprogram(name: "iswblank", linkageName: "_Z8iswblanki", scope: !1040, file: !1040, line: 50, type: !1034, flags: DIFlagPrototyped, spFlags: 0)
!1040 = !DIFile(filename: "/Applications/Xcode.app/Contents/Developer/Platforms/MacOSX.platform/Developer/SDKs/MacOSX12.1.sdk/usr/include/wctype.h", directory: "")
!1041 = !DIImportedEntity(tag: DW_TAG_imported_declaration, scope: !47, entity: !1042, file: !1020, line: 69)
!1042 = !DISubprogram(name: "iswcntrl", linkageName: "_Z8iswcntrli", scope: !1033, file: !1033, line: 63, type: !1034, flags: DIFlagPrototyped, spFlags: 0)
!1043 = !DIImportedEntity(tag: DW_TAG_imported_declaration, scope: !47, entity: !1044, file: !1020, line: 70)
!1044 = !DISubprogram(name: "iswdigit", linkageName: "_Z8iswdigiti", scope: !1033, file: !1033, line: 75, type: !1034, flags: DIFlagPrototyped, spFlags: 0)
!1045 = !DIImportedEntity(tag: DW_TAG_imported_declaration, scope: !47, entity: !1046, file: !1020, line: 71)
!1046 = !DISubprogram(name: "iswgraph", linkageName: "_Z8iswgraphi", scope: !1033, file: !1033, line: 81, type: !1034, flags: DIFlagPrototyped, spFlags: 0)
!1047 = !DIImportedEntity(tag: DW_TAG_imported_declaration, scope: !47, entity: !1048, file: !1020, line: 72)
!1048 = !DISubprogram(name: "iswlower", linkageName: "_Z8iswloweri", scope: !1033, file: !1033, line: 87, type: !1034, flags: DIFlagPrototyped, spFlags: 0)
!1049 = !DIImportedEntity(tag: DW_TAG_imported_declaration, scope: !47, entity: !1050, file: !1020, line: 73)
!1050 = !DISubprogram(name: "iswprint", linkageName: "_Z8iswprinti", scope: !1033, file: !1033, line: 93, type: !1034, flags: DIFlagPrototyped, spFlags: 0)
!1051 = !DIImportedEntity(tag: DW_TAG_imported_declaration, scope: !47, entity: !1052, file: !1020, line: 74)
!1052 = !DISubprogram(name: "iswpunct", linkageName: "_Z8iswpuncti", scope: !1033, file: !1033, line: 99, type: !1034, flags: DIFlagPrototyped, spFlags: 0)
!1053 = !DIImportedEntity(tag: DW_TAG_imported_declaration, scope: !47, entity: !1054, file: !1020, line: 75)
!1054 = !DISubprogram(name: "iswspace", linkageName: "_Z8iswspacei", scope: !1033, file: !1033, line: 105, type: !1034, flags: DIFlagPrototyped, spFlags: 0)
!1055 = !DIImportedEntity(tag: DW_TAG_imported_declaration, scope: !47, entity: !1056, file: !1020, line: 76)
!1056 = !DISubprogram(name: "iswupper", linkageName: "_Z8iswupperi", scope: !1033, file: !1033, line: 111, type: !1034, flags: DIFlagPrototyped, spFlags: 0)
!1057 = !DIImportedEntity(tag: DW_TAG_imported_declaration, scope: !47, entity: !1058, file: !1020, line: 77)
!1058 = !DISubprogram(name: "iswxdigit", linkageName: "_Z9iswxdigiti", scope: !1033, file: !1033, line: 117, type: !1034, flags: DIFlagPrototyped, spFlags: 0)
!1059 = !DIImportedEntity(tag: DW_TAG_imported_declaration, scope: !47, entity: !1060, file: !1020, line: 78)
!1060 = !DISubprogram(name: "iswctype", linkageName: "_Z8iswctypeij", scope: !1033, file: !1033, line: 69, type: !1061, flags: DIFlagPrototyped, spFlags: 0)
!1061 = !DISubroutineType(types: !1062)
!1062 = !{!6, !1017, !1027}
!1063 = !DIImportedEntity(tag: DW_TAG_imported_declaration, scope: !47, entity: !1064, file: !1020, line: 79)
!1064 = !DISubprogram(name: "wctype", scope: !1033, file: !1033, line: 157, type: !1065, flags: DIFlagPrototyped, spFlags: 0)
!1065 = !DISubroutineType(types: !1066)
!1066 = !{!1027, !75}
!1067 = !DIImportedEntity(tag: DW_TAG_imported_declaration, scope: !47, entity: !1068, file: !1020, line: 80)
!1068 = !DISubprogram(name: "towlower", linkageName: "_Z8towloweri", scope: !1033, file: !1033, line: 123, type: !1069, flags: DIFlagPrototyped, spFlags: 0)
!1069 = !DISubroutineType(types: !1070)
!1070 = !{!1017, !1017}
!1071 = !DIImportedEntity(tag: DW_TAG_imported_declaration, scope: !47, entity: !1072, file: !1020, line: 81)
!1072 = !DISubprogram(name: "towupper", linkageName: "_Z8towupperi", scope: !1033, file: !1033, line: 129, type: !1069, flags: DIFlagPrototyped, spFlags: 0)
!1073 = !DIImportedEntity(tag: DW_TAG_imported_declaration, scope: !47, entity: !1074, file: !1020, line: 82)
!1074 = !DISubprogram(name: "towctrans", scope: !1040, file: !1040, line: 121, type: !1075, flags: DIFlagPrototyped, spFlags: 0)
!1075 = !DISubroutineType(types: !1076)
!1076 = !{!1017, !1017, !1022}
!1077 = !DIImportedEntity(tag: DW_TAG_imported_declaration, scope: !47, entity: !1078, file: !1020, line: 83)
!1078 = !DISubprogram(name: "wctrans", scope: !1040, file: !1040, line: 123, type: !1079, flags: DIFlagPrototyped, spFlags: 0)
!1079 = !DISubroutineType(types: !1080)
!1080 = !{!1022, !75}
!1081 = !DIImportedEntity(tag: DW_TAG_imported_declaration, scope: !47, entity: !934, file: !1082, line: 115)
!1082 = !DIFile(filename: "/usr/local/bin/../include/c++/v1/cwchar", directory: "")
!1083 = !DIImportedEntity(tag: DW_TAG_imported_declaration, scope: !47, entity: !8, file: !1082, line: 116)
!1084 = !DIImportedEntity(tag: DW_TAG_imported_declaration, scope: !47, entity: !240, file: !1082, line: 117)
!1085 = !DIImportedEntity(tag: DW_TAG_imported_declaration, scope: !47, entity: !1017, file: !1082, line: 118)
!1086 = !DIImportedEntity(tag: DW_TAG_imported_declaration, scope: !47, entity: !295, file: !1082, line: 119)
!1087 = !DIImportedEntity(tag: DW_TAG_imported_declaration, scope: !47, entity: !1088, file: !1082, line: 120)
!1088 = !DISubprogram(name: "fwprintf", scope: !1089, file: !1089, line: 103, type: !1090, flags: DIFlagPrototyped, spFlags: 0)
!1089 = !DIFile(filename: "/Applications/Xcode.app/Contents/Developer/Platforms/MacOSX.platform/Developer/SDKs/MacOSX12.1.sdk/usr/include/wchar.h", directory: "")
!1090 = !DISubroutineType(types: !1091)
!1091 = !{!6, !358, !227, null}
!1092 = !DIImportedEntity(tag: DW_TAG_imported_declaration, scope: !47, entity: !1093, file: !1082, line: 121)
!1093 = !DISubprogram(name: "fwscanf", scope: !1089, file: !1089, line: 104, type: !1090, flags: DIFlagPrototyped, spFlags: 0)
!1094 = !DIImportedEntity(tag: DW_TAG_imported_declaration, scope: !47, entity: !1095, file: !1082, line: 122)
!1095 = !DISubprogram(name: "swprintf", scope: !1089, file: !1089, line: 115, type: !1096, flags: DIFlagPrototyped, spFlags: 0)
!1096 = !DISubroutineType(types: !1097)
!1097 = !{!6, !213, !8, !227, null}
!1098 = !DIImportedEntity(tag: DW_TAG_imported_declaration, scope: !47, entity: !1099, file: !1082, line: 123)
!1099 = !DISubprogram(name: "vfwprintf", scope: !1089, file: !1089, line: 118, type: !1100, flags: DIFlagPrototyped, spFlags: 0)
!1100 = !DISubroutineType(types: !1101)
!1101 = !{!6, !358, !227, !391}
!1102 = !DIImportedEntity(tag: DW_TAG_imported_declaration, scope: !47, entity: !1103, file: !1082, line: 124)
!1103 = !DISubprogram(name: "vswprintf", scope: !1089, file: !1089, line: 120, type: !1104, flags: DIFlagPrototyped, spFlags: 0)
!1104 = !DISubroutineType(types: !1105)
!1105 = !{!6, !213, !8, !227, !391}
!1106 = !DIImportedEntity(tag: DW_TAG_imported_declaration, scope: !47, entity: !1107, file: !1082, line: 125)
!1107 = !DISubprogram(name: "swscanf", scope: !1089, file: !1089, line: 116, type: !1108, flags: DIFlagPrototyped, spFlags: 0)
!1108 = !DISubroutineType(types: !1109)
!1109 = !{!6, !227, !227, null}
!1110 = !DIImportedEntity(tag: DW_TAG_imported_declaration, scope: !47, entity: !1111, file: !1082, line: 126)
!1111 = !DISubprogram(name: "vfwscanf", scope: !1089, file: !1089, line: 170, type: !1100, flags: DIFlagPrototyped, spFlags: 0)
!1112 = !DIImportedEntity(tag: DW_TAG_imported_declaration, scope: !47, entity: !1113, file: !1082, line: 127)
!1113 = !DISubprogram(name: "vswscanf", scope: !1089, file: !1089, line: 172, type: !1114, flags: DIFlagPrototyped, spFlags: 0)
!1114 = !DISubroutineType(types: !1115)
!1115 = !{!6, !227, !227, !391}
!1116 = !DIImportedEntity(tag: DW_TAG_imported_declaration, scope: !47, entity: !1117, file: !1082, line: 128)
!1117 = !DISubprogram(name: "fgetwc", scope: !1089, file: !1089, line: 98, type: !1118, flags: DIFlagPrototyped, spFlags: 0)
!1118 = !DISubroutineType(types: !1119)
!1119 = !{!1017, !358}
!1120 = !DIImportedEntity(tag: DW_TAG_imported_declaration, scope: !47, entity: !1121, file: !1082, line: 129)
!1121 = !DISubprogram(name: "fgetws", scope: !1089, file: !1089, line: 99, type: !1122, flags: DIFlagPrototyped, spFlags: 0)
!1122 = !DISubroutineType(types: !1123)
!1123 = !{!213, !213, !6, !358}
!1124 = !DIImportedEntity(tag: DW_TAG_imported_declaration, scope: !47, entity: !1125, file: !1082, line: 130)
!1125 = !DISubprogram(name: "fputwc", scope: !1089, file: !1089, line: 100, type: !1126, flags: DIFlagPrototyped, spFlags: 0)
!1126 = !DISubroutineType(types: !1127)
!1127 = !{!1017, !214, !358}
!1128 = !DIImportedEntity(tag: DW_TAG_imported_declaration, scope: !47, entity: !1129, file: !1082, line: 131)
!1129 = !DISubprogram(name: "fputws", scope: !1089, file: !1089, line: 101, type: !1130, flags: DIFlagPrototyped, spFlags: 0)
!1130 = !DISubroutineType(types: !1131)
!1131 = !{!6, !227, !358}
!1132 = !DIImportedEntity(tag: DW_TAG_imported_declaration, scope: !47, entity: !1133, file: !1082, line: 132)
!1133 = !DISubprogram(name: "fwide", scope: !1089, file: !1089, line: 102, type: !1134, flags: DIFlagPrototyped, spFlags: 0)
!1134 = !DISubroutineType(types: !1135)
!1135 = !{!6, !358, !6}
!1136 = !DIImportedEntity(tag: DW_TAG_imported_declaration, scope: !47, entity: !1137, file: !1082, line: 133)
!1137 = !DISubprogram(name: "getwc", scope: !1089, file: !1089, line: 105, type: !1118, flags: DIFlagPrototyped, spFlags: 0)
!1138 = !DIImportedEntity(tag: DW_TAG_imported_declaration, scope: !47, entity: !1139, file: !1082, line: 134)
!1139 = !DISubprogram(name: "putwc", scope: !1089, file: !1089, line: 113, type: !1126, flags: DIFlagPrototyped, spFlags: 0)
!1140 = !DIImportedEntity(tag: DW_TAG_imported_declaration, scope: !47, entity: !1141, file: !1082, line: 135)
!1141 = !DISubprogram(name: "ungetwc", scope: !1089, file: !1089, line: 117, type: !1142, flags: DIFlagPrototyped, spFlags: 0)
!1142 = !DISubroutineType(types: !1143)
!1143 = !{!1017, !1017, !358}
!1144 = !DIImportedEntity(tag: DW_TAG_imported_declaration, scope: !47, entity: !1145, file: !1082, line: 136)
!1145 = !DISubprogram(name: "wcstod", scope: !1089, file: !1089, line: 144, type: !1146, flags: DIFlagPrototyped, spFlags: 0)
!1146 = !DISubroutineType(types: !1147)
!1147 = !{!74, !227, !1148}
!1148 = !DIDerivedType(tag: DW_TAG_pointer_type, baseType: !213, size: 64)
!1149 = !DIImportedEntity(tag: DW_TAG_imported_declaration, scope: !47, entity: !1150, file: !1082, line: 137)
!1150 = !DISubprogram(name: "wcstof", scope: !1089, file: !1089, line: 175, type: !1151, flags: DIFlagPrototyped, spFlags: 0)
!1151 = !DISubroutineType(types: !1152)
!1152 = !{!100, !227, !1148}
!1153 = !DIImportedEntity(tag: DW_TAG_imported_declaration, scope: !47, entity: !1154, file: !1082, line: 138)
!1154 = !DISubprogram(name: "wcstold", scope: !1089, file: !1089, line: 177, type: !1155, flags: DIFlagPrototyped, spFlags: 0)
!1155 = !DISubroutineType(types: !1156)
!1156 = !{!15, !227, !1148}
!1157 = !DIImportedEntity(tag: DW_TAG_imported_declaration, scope: !47, entity: !1158, file: !1082, line: 139)
!1158 = !DISubprogram(name: "wcstol", scope: !1089, file: !1089, line: 147, type: !1159, flags: DIFlagPrototyped, spFlags: 0)
!1159 = !DISubroutineType(types: !1160)
!1160 = !{!62, !227, !1148, !6}
!1161 = !DIImportedEntity(tag: DW_TAG_imported_declaration, scope: !47, entity: !1162, file: !1082, line: 140)
!1162 = !DISubprogram(name: "wcstoll", scope: !1089, file: !1089, line: 180, type: !1163, flags: DIFlagPrototyped, spFlags: 0)
!1163 = !DISubroutineType(types: !1164)
!1164 = !{!20, !227, !1148, !6}
!1165 = !DIImportedEntity(tag: DW_TAG_imported_declaration, scope: !47, entity: !1166, file: !1082, line: 141)
!1166 = !DISubprogram(name: "wcstoul", scope: !1089, file: !1089, line: 149, type: !1167, flags: DIFlagPrototyped, spFlags: 0)
!1167 = !DISubroutineType(types: !1168)
!1168 = !{!12, !227, !1148, !6}
!1169 = !DIImportedEntity(tag: DW_TAG_imported_declaration, scope: !47, entity: !1170, file: !1082, line: 142)
!1170 = !DISubprogram(name: "wcstoull", scope: !1089, file: !1089, line: 182, type: !1171, flags: DIFlagPrototyped, spFlags: 0)
!1171 = !DISubroutineType(types: !1172)
!1172 = !{!121, !227, !1148, !6}
!1173 = !DIImportedEntity(tag: DW_TAG_imported_declaration, scope: !47, entity: !1174, file: !1082, line: 143)
!1174 = !DISubprogram(name: "wcscpy", scope: !1089, file: !1089, line: 128, type: !1175, flags: DIFlagPrototyped, spFlags: 0)
!1175 = !DISubroutineType(types: !1176)
!1176 = !{!213, !213, !227}
!1177 = !DIImportedEntity(tag: DW_TAG_imported_declaration, scope: !47, entity: !1178, file: !1082, line: 144)
!1178 = !DISubprogram(name: "wcsncpy", scope: !1089, file: !1089, line: 135, type: !1179, flags: DIFlagPrototyped, spFlags: 0)
!1179 = !DISubroutineType(types: !1180)
!1180 = !{!213, !213, !227, !8}
!1181 = !DIImportedEntity(tag: DW_TAG_imported_declaration, scope: !47, entity: !1182, file: !1082, line: 145)
!1182 = !DISubprogram(name: "wcscat", scope: !1089, file: !1089, line: 124, type: !1175, flags: DIFlagPrototyped, spFlags: 0)
!1183 = !DIImportedEntity(tag: DW_TAG_imported_declaration, scope: !47, entity: !1184, file: !1082, line: 146)
!1184 = !DISubprogram(name: "wcsncat", scope: !1089, file: !1089, line: 133, type: !1179, flags: DIFlagPrototyped, spFlags: 0)
!1185 = !DIImportedEntity(tag: DW_TAG_imported_declaration, scope: !47, entity: !1186, file: !1082, line: 147)
!1186 = !DISubprogram(name: "wcscmp", scope: !1089, file: !1089, line: 126, type: !1187, flags: DIFlagPrototyped, spFlags: 0)
!1187 = !DISubroutineType(types: !1188)
!1188 = !{!6, !227, !227}
!1189 = !DIImportedEntity(tag: DW_TAG_imported_declaration, scope: !47, entity: !1190, file: !1082, line: 148)
!1190 = !DISubprogram(name: "wcscoll", scope: !1089, file: !1089, line: 127, type: !1187, flags: DIFlagPrototyped, spFlags: 0)
!1191 = !DIImportedEntity(tag: DW_TAG_imported_declaration, scope: !47, entity: !1192, file: !1082, line: 149)
!1192 = !DISubprogram(name: "wcsncmp", scope: !1089, file: !1089, line: 134, type: !1193, flags: DIFlagPrototyped, spFlags: 0)
!1193 = !DISubroutineType(types: !1194)
!1194 = !{!6, !227, !227, !8}
!1195 = !DIImportedEntity(tag: DW_TAG_imported_declaration, scope: !47, entity: !1196, file: !1082, line: 150)
!1196 = !DISubprogram(name: "wcsxfrm", scope: !1089, file: !1089, line: 142, type: !1197, flags: DIFlagPrototyped, spFlags: 0)
!1197 = !DISubroutineType(types: !1198)
!1198 = !{!8, !213, !227, !8}
!1199 = !DIImportedEntity(tag: DW_TAG_imported_declaration, scope: !47, entity: !1200, file: !1082, line: 151)
!1200 = !DISubprogram(name: "wcschr", linkageName: "_Z6wcschrUa9enable_ifILb1EEPww", scope: !1201, file: !1201, line: 145, type: !1202, flags: DIFlagPrototyped, spFlags: 0)
!1201 = !DIFile(filename: "/usr/local/bin/../include/c++/v1/wchar.h", directory: "")
!1202 = !DISubroutineType(types: !1203)
!1203 = !{!213, !213, !214}
!1204 = !DIImportedEntity(tag: DW_TAG_imported_declaration, scope: !47, entity: !1205, file: !1082, line: 152)
!1205 = !DISubprogram(name: "wcspbrk", linkageName: "_Z7wcspbrkUa9enable_ifILb1EEPwPKw", scope: !1201, file: !1201, line: 152, type: !1175, flags: DIFlagPrototyped, spFlags: 0)
!1206 = !DIImportedEntity(tag: DW_TAG_imported_declaration, scope: !47, entity: !1207, file: !1082, line: 153)
!1207 = !DISubprogram(name: "wcsrchr", linkageName: "_Z7wcsrchrUa9enable_ifILb1EEPww", scope: !1201, file: !1201, line: 159, type: !1202, flags: DIFlagPrototyped, spFlags: 0)
!1208 = !DIImportedEntity(tag: DW_TAG_imported_declaration, scope: !47, entity: !1209, file: !1082, line: 154)
!1209 = !DISubprogram(name: "wcsstr", linkageName: "_Z6wcsstrUa9enable_ifILb1EEPwPKw", scope: !1201, file: !1201, line: 166, type: !1175, flags: DIFlagPrototyped, spFlags: 0)
!1210 = !DIImportedEntity(tag: DW_TAG_imported_declaration, scope: !47, entity: !1211, file: !1082, line: 155)
!1211 = !DISubprogram(name: "wmemchr", linkageName: "_Z7wmemchrUa9enable_ifILb1EEPwwm", scope: !1201, file: !1201, line: 173, type: !1212, flags: DIFlagPrototyped, spFlags: 0)
!1212 = !DISubroutineType(types: !1213)
!1213 = !{!213, !213, !214, !8}
!1214 = !DIImportedEntity(tag: DW_TAG_imported_declaration, scope: !47, entity: !1215, file: !1082, line: 156)
!1215 = !DISubprogram(name: "wcscspn", scope: !1089, file: !1089, line: 129, type: !1216, flags: DIFlagPrototyped, spFlags: 0)
!1216 = !DISubroutineType(types: !1217)
!1217 = !{!8, !227, !227}
!1218 = !DIImportedEntity(tag: DW_TAG_imported_declaration, scope: !47, entity: !1219, file: !1082, line: 157)
!1219 = !DISubprogram(name: "wcslen", scope: !1089, file: !1089, line: 132, type: !1220, flags: DIFlagPrototyped, spFlags: 0)
!1220 = !DISubroutineType(types: !1221)
!1221 = !{!8, !227}
!1222 = !DIImportedEntity(tag: DW_TAG_imported_declaration, scope: !47, entity: !1223, file: !1082, line: 158)
!1223 = !DISubprogram(name: "wcsspn", scope: !1089, file: !1089, line: 140, type: !1216, flags: DIFlagPrototyped, spFlags: 0)
!1224 = !DIImportedEntity(tag: DW_TAG_imported_declaration, scope: !47, entity: !1225, file: !1082, line: 159)
!1225 = !DISubprogram(name: "wcstok", scope: !1089, file: !1089, line: 145, type: !1226, flags: DIFlagPrototyped, spFlags: 0)
!1226 = !DISubroutineType(types: !1227)
!1227 = !{!213, !213, !227, !1148}
!1228 = !DIImportedEntity(tag: DW_TAG_imported_declaration, scope: !47, entity: !1229, file: !1082, line: 160)
!1229 = !DISubprogram(name: "wmemcmp", scope: !1089, file: !1089, line: 151, type: !1193, flags: DIFlagPrototyped, spFlags: 0)
!1230 = !DIImportedEntity(tag: DW_TAG_imported_declaration, scope: !47, entity: !1231, file: !1082, line: 161)
!1231 = !DISubprogram(name: "wmemcpy", scope: !1089, file: !1089, line: 152, type: !1179, flags: DIFlagPrototyped, spFlags: 0)
!1232 = !DIImportedEntity(tag: DW_TAG_imported_declaration, scope: !47, entity: !1233, file: !1082, line: 162)
!1233 = !DISubprogram(name: "wmemmove", scope: !1089, file: !1089, line: 153, type: !1179, flags: DIFlagPrototyped, spFlags: 0)
!1234 = !DIImportedEntity(tag: DW_TAG_imported_declaration, scope: !47, entity: !1235, file: !1082, line: 163)
!1235 = !DISubprogram(name: "wmemset", scope: !1089, file: !1089, line: 154, type: !1212, flags: DIFlagPrototyped, spFlags: 0)
!1236 = !DIImportedEntity(tag: DW_TAG_imported_declaration, scope: !47, entity: !1237, file: !1082, line: 164)
!1237 = !DISubprogram(name: "wcsftime", linkageName: "\01_wcsftime", scope: !1089, file: !1089, line: 130, type: !1238, flags: DIFlagPrototyped, spFlags: 0)
!1238 = !DISubroutineType(types: !1239)
!1239 = !{!8, !213, !8, !227, !276}
!1240 = !DIImportedEntity(tag: DW_TAG_imported_declaration, scope: !47, entity: !1241, file: !1082, line: 165)
!1241 = !DISubprogram(name: "btowc", scope: !1089, file: !1089, line: 97, type: !1242, flags: DIFlagPrototyped, spFlags: 0)
!1242 = !DISubroutineType(types: !1243)
!1243 = !{!1017, !6}
!1244 = !DIImportedEntity(tag: DW_TAG_imported_declaration, scope: !47, entity: !1245, file: !1082, line: 166)
!1245 = !DISubprogram(name: "wctob", scope: !1089, file: !1089, line: 143, type: !1034, flags: DIFlagPrototyped, spFlags: 0)
!1246 = !DIImportedEntity(tag: DW_TAG_imported_declaration, scope: !47, entity: !1247, file: !1082, line: 167)
!1247 = !DISubprogram(name: "mbsinit", scope: !1089, file: !1089, line: 110, type: !1248, flags: DIFlagPrototyped, spFlags: 0)
!1248 = !DISubroutineType(types: !1249)
!1249 = !{!6, !1250}
!1250 = !DIDerivedType(tag: DW_TAG_pointer_type, baseType: !1251, size: 64)
!1251 = !DIDerivedType(tag: DW_TAG_const_type, baseType: !934)
!1252 = !DIImportedEntity(tag: DW_TAG_imported_declaration, scope: !47, entity: !1253, file: !1082, line: 168)
!1253 = !DISubprogram(name: "mbrlen", scope: !1089, file: !1089, line: 107, type: !1254, flags: DIFlagPrototyped, spFlags: 0)
!1254 = !DISubroutineType(types: !1255)
!1255 = !{!8, !75, !8, !1256}
!1256 = !DIDerivedType(tag: DW_TAG_pointer_type, baseType: !934, size: 64)
!1257 = !DIImportedEntity(tag: DW_TAG_imported_declaration, scope: !47, entity: !1258, file: !1082, line: 169)
!1258 = !DISubprogram(name: "mbrtowc", scope: !1089, file: !1089, line: 108, type: !1259, flags: DIFlagPrototyped, spFlags: 0)
!1259 = !DISubroutineType(types: !1260)
!1260 = !{!8, !213, !75, !8, !1256}
!1261 = !DIImportedEntity(tag: DW_TAG_imported_declaration, scope: !47, entity: !1262, file: !1082, line: 170)
!1262 = !DISubprogram(name: "wcrtomb", scope: !1089, file: !1089, line: 123, type: !1263, flags: DIFlagPrototyped, spFlags: 0)
!1263 = !DISubroutineType(types: !1264)
!1264 = !{!8, !95, !214, !1256}
!1265 = !DIImportedEntity(tag: DW_TAG_imported_declaration, scope: !47, entity: !1266, file: !1082, line: 171)
!1266 = !DISubprogram(name: "mbsrtowcs", scope: !1089, file: !1089, line: 111, type: !1267, flags: DIFlagPrototyped, spFlags: 0)
!1267 = !DISubroutineType(types: !1268)
!1268 = !{!8, !213, !1269, !8, !1256}
!1269 = !DIDerivedType(tag: DW_TAG_pointer_type, baseType: !75, size: 64)
!1270 = !DIImportedEntity(tag: DW_TAG_imported_declaration, scope: !47, entity: !1271, file: !1082, line: 172)
!1271 = !DISubprogram(name: "wcsrtombs", scope: !1089, file: !1089, line: 138, type: !1272, flags: DIFlagPrototyped, spFlags: 0)
!1272 = !DISubroutineType(types: !1273)
!1273 = !{!8, !95, !1274, !8, !1256}
!1274 = !DIDerivedType(tag: DW_TAG_pointer_type, baseType: !227, size: 64)
!1275 = !DIImportedEntity(tag: DW_TAG_imported_declaration, scope: !47, entity: !1276, file: !1082, line: 174)
!1276 = !DISubprogram(name: "getwchar", scope: !1089, file: !1089, line: 106, type: !1277, flags: DIFlagPrototyped, spFlags: 0)
!1277 = !DISubroutineType(types: !1278)
!1278 = !{!1017}
!1279 = !DIImportedEntity(tag: DW_TAG_imported_declaration, scope: !47, entity: !1280, file: !1082, line: 175)
!1280 = !DISubprogram(name: "vwscanf", scope: !1089, file: !1089, line: 174, type: !1281, flags: DIFlagPrototyped, spFlags: 0)
!1281 = !DISubroutineType(types: !1282)
!1282 = !{!6, !227, !391}
!1283 = !DIImportedEntity(tag: DW_TAG_imported_declaration, scope: !47, entity: !1284, file: !1082, line: 176)
!1284 = !DISubprogram(name: "wscanf", scope: !1089, file: !1089, line: 156, type: !1285, flags: DIFlagPrototyped, spFlags: 0)
!1285 = !DISubroutineType(types: !1286)
!1286 = !{!6, !227, null}
!1287 = !DIImportedEntity(tag: DW_TAG_imported_declaration, scope: !47, entity: !1288, file: !1082, line: 178)
!1288 = !DISubprogram(name: "putwchar", scope: !1089, file: !1089, line: 114, type: !1289, flags: DIFlagPrototyped, spFlags: 0)
!1289 = !DISubroutineType(types: !1290)
!1290 = !{!1017, !214}
!1291 = !DIImportedEntity(tag: DW_TAG_imported_declaration, scope: !47, entity: !1292, file: !1082, line: 179)
!1292 = !DISubprogram(name: "vwprintf", scope: !1089, file: !1089, line: 122, type: !1281, flags: DIFlagPrototyped, spFlags: 0)
!1293 = !DIImportedEntity(tag: DW_TAG_imported_declaration, scope: !47, entity: !1294, file: !1082, line: 180)
!1294 = !DISubprogram(name: "wprintf", scope: !1089, file: !1089, line: 155, type: !1285, flags: DIFlagPrototyped, spFlags: 0)
!1295 = !DIImportedEntity(tag: DW_TAG_imported_module, scope: !13, entity: !48, file: !3, line: 16)
!1296 = !{}
!1297 = !{i32 2, !"SDK Version", [2 x i32] [i32 12, i32 1]}
!1298 = !{i32 7, !"Dwarf Version", i32 4}
!1299 = !{i32 2, !"Debug Info Version", i32 3}
!1300 = !{i32 1, !"wchar_size", i32 4}
!1301 = !{i32 7, !"PIC Level", i32 2}
!1302 = !{i32 7, !"uwtable", i32 1}
!1303 = !{i32 7, !"frame-pointer", i32 2}
!1304 = !{!"clang version 14.0.0 (https://github.com/llvm/llvm-project.git e7298464c5d004a119583cdb8a120dc3d968508d)"}
!1305 = distinct !DISubprogram(name: "sum_naive", linkageName: "_Z9sum_naivePim", scope: !3, file: !3, line: 21, type: !4, scopeLine: 21, flags: DIFlagPrototyped, spFlags: DISPFlagDefinition, unit: !13, retainedNodes: !1296)
!1306 = !DILocalVariable(name: "arr", arg: 1, scope: !1305, file: !3, line: 21, type: !7)
!1307 = !DILocation(line: 21, column: 19, scope: !1305)
!1308 = !DILocalVariable(name: "n", arg: 2, scope: !1305, file: !3, line: 21, type: !8)
!1309 = !DILocation(line: 21, column: 33, scope: !1305)
!1310 = !DILocalVariable(name: "start", scope: !1305, file: !3, line: 22, type: !230)
!1311 = !DILocation(line: 22, column: 13, scope: !1305)
!1312 = !DILocation(line: 22, column: 21, scope: !1305)
!1313 = !DILocalVariable(name: "ans", scope: !1305, file: !3, line: 24, type: !6)
!1314 = !DILocation(line: 24, column: 9, scope: !1305)
!1315 = !DILocalVariable(name: "i", scope: !1316, file: !3, line: 25, type: !8)
!1316 = distinct !DILexicalBlock(scope: !1305, file: !3, line: 25, column: 5)
!1317 = !DILocation(line: 25, column: 17, scope: !1316)
!1318 = !DILocation(line: 25, column: 10, scope: !1316)
!1319 = !DILocation(line: 25, column: 24, scope: !1320)
!1320 = distinct !DILexicalBlock(scope: !1316, file: !3, line: 25, column: 5)
!1321 = !DILocation(line: 25, column: 28, scope: !1320)
!1322 = !DILocation(line: 25, column: 26, scope: !1320)
!1323 = !DILocation(line: 25, column: 5, scope: !1316)
!1324 = !DILocation(line: 26, column: 16, scope: !1320)
!1325 = !DILocation(line: 26, column: 20, scope: !1320)
!1326 = !DILocation(line: 26, column: 13, scope: !1320)
!1327 = !DILocation(line: 26, column: 9, scope: !1320)
!1328 = !DILocation(line: 25, column: 32, scope: !1320)
!1329 = !DILocation(line: 25, column: 5, scope: !1320)
!1330 = distinct !{!1330, !1323, !1331, !1332}
!1331 = !DILocation(line: 26, column: 21, scope: !1316)
!1332 = !{!"llvm.loop.mustprogress"}
!1333 = !DILocalVariable(name: "end", scope: !1305, file: !3, line: 28, type: !230)
!1334 = !DILocation(line: 28, column: 13, scope: !1305)
!1335 = !DILocation(line: 28, column: 19, scope: !1305)
!1336 = !DILocation(line: 29, column: 52, scope: !1305)
!1337 = !DILocation(line: 29, column: 58, scope: !1305)
!1338 = !DILocation(line: 29, column: 56, scope: !1305)
!1339 = !DILocation(line: 29, column: 51, scope: !1305)
!1340 = !DILocation(line: 29, column: 64, scope: !1305)
!1341 = !DILocation(line: 29, column: 70, scope: !1305)
!1342 = !DILocation(line: 29, column: 5, scope: !1305)
!1343 = !DILocation(line: 30, column: 12, scope: !1305)
!1344 = !DILocation(line: 30, column: 5, scope: !1305)
!1345 = distinct !DISubprogram(name: "sum_unrolled", linkageName: "_Z12sum_unrolledPim", scope: !3, file: !3, line: 33, type: !4, scopeLine: 33, flags: DIFlagPrototyped, spFlags: DISPFlagDefinition, unit: !13, retainedNodes: !1296)
!1346 = !DILocalVariable(name: "arr", arg: 1, scope: !1345, file: !3, line: 33, type: !7)
!1347 = !DILocation(line: 33, column: 22, scope: !1345)
!1348 = !DILocalVariable(name: "n", arg: 2, scope: !1345, file: !3, line: 33, type: !8)
!1349 = !DILocation(line: 33, column: 36, scope: !1345)
!1350 = !DILocalVariable(name: "start", scope: !1345, file: !3, line: 34, type: !230)
!1351 = !DILocation(line: 34, column: 13, scope: !1345)
!1352 = !DILocation(line: 34, column: 21, scope: !1345)
!1353 = !DILocalVariable(name: "ans", scope: !1345, file: !3, line: 35, type: !6)
!1354 = !DILocation(line: 35, column: 9, scope: !1345)
!1355 = !DILocalVariable(name: "i", scope: !1345, file: !3, line: 36, type: !8)
!1356 = !DILocation(line: 36, column: 12, scope: !1345)
!1357 = !DILocation(line: 37, column: 5, scope: !1345)
!1358 = !DILocation(line: 37, column: 12, scope: !1359)
!1359 = distinct !DILexicalBlock(scope: !1360, file: !3, line: 37, column: 5)
!1360 = distinct !DILexicalBlock(scope: !1345, file: !3, line: 37, column: 5)
!1361 = !DILocation(line: 37, column: 16, scope: !1359)
!1362 = !DILocation(line: 37, column: 17, scope: !1359)
!1363 = !DILocation(line: 37, column: 19, scope: !1359)
!1364 = !DILocation(line: 37, column: 14, scope: !1359)
!1365 = !DILocation(line: 37, column: 5, scope: !1360)
!1366 = !DILocation(line: 38, column: 16, scope: !1367)
!1367 = distinct !DILexicalBlock(scope: !1359, file: !3, line: 37, column: 30)
!1368 = !DILocation(line: 38, column: 20, scope: !1367)
!1369 = !DILocation(line: 38, column: 13, scope: !1367)
!1370 = !DILocation(line: 39, column: 16, scope: !1367)
!1371 = !DILocation(line: 39, column: 20, scope: !1367)
!1372 = !DILocation(line: 39, column: 21, scope: !1367)
!1373 = !DILocation(line: 39, column: 13, scope: !1367)
!1374 = !DILocation(line: 40, column: 16, scope: !1367)
!1375 = !DILocation(line: 40, column: 20, scope: !1367)
!1376 = !DILocation(line: 40, column: 21, scope: !1367)
!1377 = !DILocation(line: 40, column: 13, scope: !1367)
!1378 = !DILocation(line: 41, column: 16, scope: !1367)
!1379 = !DILocation(line: 41, column: 20, scope: !1367)
!1380 = !DILocation(line: 41, column: 21, scope: !1367)
!1381 = !DILocation(line: 41, column: 13, scope: !1367)
!1382 = !DILocation(line: 42, column: 5, scope: !1367)
!1383 = !DILocation(line: 37, column: 25, scope: !1359)
!1384 = !DILocation(line: 37, column: 5, scope: !1359)
!1385 = distinct !{!1385, !1365, !1386, !1332}
!1386 = !DILocation(line: 42, column: 5, scope: !1360)
!1387 = !DILocation(line: 44, column: 5, scope: !1345)
!1388 = !DILocation(line: 44, column: 12, scope: !1345)
!1389 = !DILocation(line: 44, column: 16, scope: !1345)
!1390 = !DILocation(line: 44, column: 14, scope: !1345)
!1391 = !DILocation(line: 44, column: 26, scope: !1345)
!1392 = !DILocation(line: 44, column: 31, scope: !1345)
!1393 = !DILocation(line: 44, column: 23, scope: !1345)
!1394 = distinct !{!1394, !1387, !1395, !1332}
!1395 = !DILocation(line: 44, column: 33, scope: !1345)
!1396 = !DILocalVariable(name: "end", scope: !1345, file: !3, line: 46, type: !230)
!1397 = !DILocation(line: 46, column: 13, scope: !1345)
!1398 = !DILocation(line: 46, column: 19, scope: !1345)
!1399 = !DILocation(line: 47, column: 55, scope: !1345)
!1400 = !DILocation(line: 47, column: 61, scope: !1345)
!1401 = !DILocation(line: 47, column: 59, scope: !1345)
!1402 = !DILocation(line: 47, column: 54, scope: !1345)
!1403 = !DILocation(line: 47, column: 67, scope: !1345)
!1404 = !DILocation(line: 47, column: 73, scope: !1345)
!1405 = !DILocation(line: 47, column: 5, scope: !1345)
!1406 = !DILocation(line: 48, column: 12, scope: !1345)
!1407 = !DILocation(line: 48, column: 5, scope: !1345)
!1408 = !DILocalVariable(name: "arr", arg: 1, scope: !2, file: !3, line: 52, type: !7)
!1409 = !DILocation(line: 52, column: 23, scope: !2)
!1410 = !DILocalVariable(name: "n", arg: 2, scope: !2, file: !3, line: 52, type: !8)
!1411 = !DILocation(line: 52, column: 37, scope: !2)
!1412 = !DILocalVariable(name: "start", scope: !2, file: !3, line: 53, type: !230)
!1413 = !DILocation(line: 53, column: 13, scope: !2)
!1414 = !DILocation(line: 53, column: 21, scope: !2)
!1415 = !DILocation(line: 55, column: 5, scope: !2)
!1416 = !{!"branch_weights", i32 1, i32 1048575}
!1417 = !DILocation(line: 55, column: 30, scope: !2)
!1418 = !DILocalVariable(name: "i", scope: !2, file: !3, line: 56, type: !8)
!1419 = !DILocation(line: 56, column: 12, scope: !2)
!1420 = !DILocation(line: 57, column: 5, scope: !2)
!1421 = !DILocation(line: 57, column: 12, scope: !1422)
!1422 = distinct !DILexicalBlock(scope: !1423, file: !3, line: 57, column: 5)
!1423 = distinct !DILexicalBlock(scope: !2, file: !3, line: 57, column: 5)
!1424 = !DILocation(line: 57, column: 16, scope: !1422)
!1425 = !DILocation(line: 57, column: 17, scope: !1422)
!1426 = !DILocation(line: 57, column: 19, scope: !1422)
!1427 = !DILocation(line: 57, column: 14, scope: !1422)
!1428 = !DILocation(line: 57, column: 5, scope: !1423)
!1429 = !DILocation(line: 58, column: 9, scope: !1430)
!1430 = distinct !DILexicalBlock(scope: !1422, file: !3, line: 57, column: 30)
!1431 = !DILocation(line: 58, column: 55, scope: !1430)
!1432 = !DILocation(line: 58, column: 59, scope: !1430)
!1433 = !DILocation(line: 58, column: 58, scope: !1430)
!1434 = !DILocation(line: 58, column: 44, scope: !1430)
!1435 = !DILocation(line: 58, column: 28, scope: !1430)
!1436 = !DILocation(line: 59, column: 33, scope: !1430)
!1437 = !DILocation(line: 59, column: 42, scope: !1430)
!1438 = !DILocation(line: 59, column: 19, scope: !1430)
!1439 = !DILocation(line: 59, column: 17, scope: !1430)
!1440 = !DILocation(line: 60, column: 5, scope: !1430)
!1441 = !DILocation(line: 57, column: 25, scope: !1422)
!1442 = !DILocation(line: 57, column: 5, scope: !1422)
!1443 = distinct !{!1443, !1428, !1444, !1332}
!1444 = !DILocation(line: 60, column: 5, scope: !1423)
!1445 = !DILocation(line: 70, column: 1, scope: !2)
!1446 = !DILocation(line: 70, column: 1, scope: !1430)
!1447 = !DILocalVariable(name: "ans_arr", scope: !2, file: !3, line: 62, type: !1448)
!1448 = !DICompositeType(tag: DW_TAG_array_type, baseType: !6, size: 128, elements: !33)
!1449 = !DILocation(line: 62, column: 9, scope: !2)
!1450 = !DILocation(line: 63, column: 32, scope: !2)
!1451 = !DILocation(line: 63, column: 22, scope: !2)
!1452 = !DILocation(line: 63, column: 41, scope: !2)
!1453 = !DILocation(line: 63, column: 5, scope: !2)
!1454 = !DILocalVariable(name: "ans", scope: !2, file: !3, line: 64, type: !6)
!1455 = !DILocation(line: 64, column: 9, scope: !2)
!1456 = !DILocation(line: 65, column: 12, scope: !2)
!1457 = !DILocation(line: 65, column: 25, scope: !2)
!1458 = !DILocation(line: 65, column: 23, scope: !2)
!1459 = !DILocation(line: 65, column: 38, scope: !2)
!1460 = !DILocation(line: 65, column: 36, scope: !2)
!1461 = !DILocation(line: 65, column: 51, scope: !2)
!1462 = !DILocation(line: 65, column: 49, scope: !2)
!1463 = !DILocation(line: 65, column: 9, scope: !2)
!1464 = !DILocation(line: 66, column: 5, scope: !2)
!1465 = !DILocation(line: 66, column: 12, scope: !2)
!1466 = !DILocation(line: 66, column: 16, scope: !2)
!1467 = !DILocation(line: 66, column: 14, scope: !2)
!1468 = !DILocation(line: 66, column: 26, scope: !2)
!1469 = !DILocation(line: 66, column: 31, scope: !2)
!1470 = !DILocation(line: 66, column: 23, scope: !2)
!1471 = distinct !{!1471, !1464, !1472, !1332}
!1472 = !DILocation(line: 66, column: 33, scope: !2)
!1473 = !DILocalVariable(name: "end", scope: !2, file: !3, line: 67, type: !230)
!1474 = !DILocation(line: 67, column: 13, scope: !2)
!1475 = !DILocation(line: 67, column: 19, scope: !2)
!1476 = !DILocation(line: 68, column: 50, scope: !2)
!1477 = !DILocation(line: 68, column: 56, scope: !2)
!1478 = !DILocation(line: 68, column: 54, scope: !2)
!1479 = !DILocation(line: 68, column: 49, scope: !2)
!1480 = !DILocation(line: 68, column: 62, scope: !2)
!1481 = !DILocation(line: 68, column: 68, scope: !2)
!1482 = !DILocation(line: 68, column: 5, scope: !2)
!1483 = !DILocation(line: 69, column: 12, scope: !2)
!1484 = !DILocation(line: 69, column: 5, scope: !2)
!1485 = distinct !DISubprogram(name: "sum_unrolled_sse", linkageName: "_Z16sum_unrolled_ssePim", scope: !3, file: !3, line: 72, type: !4, scopeLine: 72, flags: DIFlagPrototyped, spFlags: DISPFlagDefinition, unit: !13, retainedNodes: !1296)
!1486 = !DILocalVariable(name: "arr", arg: 1, scope: !1485, file: !3, line: 72, type: !7)
!1487 = !DILocation(line: 72, column: 26, scope: !1485)
!1488 = !DILocalVariable(name: "n", arg: 2, scope: !1485, file: !3, line: 72, type: !8)
!1489 = !DILocation(line: 72, column: 40, scope: !1485)
!1490 = !DILocalVariable(name: "start", scope: !1485, file: !3, line: 73, type: !230)
!1491 = !DILocation(line: 73, column: 13, scope: !1485)
!1492 = !DILocation(line: 73, column: 21, scope: !1485)
!1493 = !DILocalVariable(name: "ans_vec", scope: !1485, file: !3, line: 74, type: !17)
!1494 = !DILocation(line: 74, column: 13, scope: !1485)
!1495 = !DILocation(line: 74, column: 23, scope: !1485)
!1496 = !DILocalVariable(name: "i", scope: !1485, file: !3, line: 76, type: !8)
!1497 = !DILocation(line: 76, column: 12, scope: !1485)
!1498 = !DILocation(line: 77, column: 5, scope: !1485)
!1499 = !DILocation(line: 77, column: 12, scope: !1500)
!1500 = distinct !DILexicalBlock(scope: !1501, file: !3, line: 77, column: 5)
!1501 = distinct !DILexicalBlock(scope: !1485, file: !3, line: 77, column: 5)
!1502 = !DILocation(line: 77, column: 16, scope: !1500)
!1503 = !DILocation(line: 77, column: 17, scope: !1500)
!1504 = !DILocation(line: 77, column: 20, scope: !1500)
!1505 = !DILocation(line: 77, column: 14, scope: !1500)
!1506 = !DILocation(line: 77, column: 5, scope: !1501)
!1507 = !DILocalVariable(name: "b", scope: !1508, file: !3, line: 78, type: !17)
!1508 = distinct !DILexicalBlock(scope: !1500, file: !3, line: 77, column: 33)
!1509 = !DILocation(line: 78, column: 17, scope: !1508)
!1510 = !DILocation(line: 78, column: 48, scope: !1508)
!1511 = !DILocation(line: 78, column: 52, scope: !1508)
!1512 = !DILocation(line: 78, column: 51, scope: !1508)
!1513 = !DILocation(line: 78, column: 37, scope: !1508)
!1514 = !DILocation(line: 78, column: 21, scope: !1508)
!1515 = !DILocation(line: 79, column: 33, scope: !1508)
!1516 = !DILocation(line: 79, column: 42, scope: !1508)
!1517 = !DILocation(line: 79, column: 19, scope: !1508)
!1518 = !DILocation(line: 79, column: 17, scope: !1508)
!1519 = !DILocation(line: 81, column: 40, scope: !1508)
!1520 = !DILocation(line: 81, column: 44, scope: !1508)
!1521 = !DILocation(line: 81, column: 43, scope: !1508)
!1522 = !DILocation(line: 81, column: 45, scope: !1508)
!1523 = !DILocation(line: 81, column: 29, scope: !1508)
!1524 = !DILocation(line: 81, column: 13, scope: !1508)
!1525 = !DILocation(line: 81, column: 11, scope: !1508)
!1526 = !DILocation(line: 82, column: 33, scope: !1508)
!1527 = !DILocation(line: 82, column: 42, scope: !1508)
!1528 = !DILocation(line: 82, column: 19, scope: !1508)
!1529 = !DILocation(line: 82, column: 17, scope: !1508)
!1530 = !DILocation(line: 84, column: 40, scope: !1508)
!1531 = !DILocation(line: 84, column: 44, scope: !1508)
!1532 = !DILocation(line: 84, column: 43, scope: !1508)
!1533 = !DILocation(line: 84, column: 45, scope: !1508)
!1534 = !DILocation(line: 84, column: 29, scope: !1508)
!1535 = !DILocation(line: 84, column: 13, scope: !1508)
!1536 = !DILocation(line: 84, column: 11, scope: !1508)
!1537 = !DILocation(line: 85, column: 33, scope: !1508)
!1538 = !DILocation(line: 85, column: 42, scope: !1508)
!1539 = !DILocation(line: 85, column: 19, scope: !1508)
!1540 = !DILocation(line: 85, column: 17, scope: !1508)
!1541 = !DILocation(line: 87, column: 40, scope: !1508)
!1542 = !DILocation(line: 87, column: 44, scope: !1508)
!1543 = !DILocation(line: 87, column: 43, scope: !1508)
!1544 = !DILocation(line: 87, column: 45, scope: !1508)
!1545 = !DILocation(line: 87, column: 29, scope: !1508)
!1546 = !DILocation(line: 87, column: 13, scope: !1508)
!1547 = !DILocation(line: 87, column: 11, scope: !1508)
!1548 = !DILocation(line: 88, column: 33, scope: !1508)
!1549 = !DILocation(line: 88, column: 42, scope: !1508)
!1550 = !DILocation(line: 88, column: 19, scope: !1508)
!1551 = !DILocation(line: 88, column: 17, scope: !1508)
!1552 = !DILocation(line: 89, column: 5, scope: !1508)
!1553 = !DILocation(line: 77, column: 27, scope: !1500)
!1554 = !DILocation(line: 77, column: 5, scope: !1500)
!1555 = distinct !{!1555, !1506, !1556, !1332}
!1556 = !DILocation(line: 89, column: 5, scope: !1501)
!1557 = !DILocalVariable(name: "ans_arr", scope: !1485, file: !3, line: 91, type: !1448)
!1558 = !DILocation(line: 91, column: 9, scope: !1485)
!1559 = !DILocation(line: 92, column: 32, scope: !1485)
!1560 = !DILocation(line: 92, column: 22, scope: !1485)
!1561 = !DILocation(line: 92, column: 41, scope: !1485)
!1562 = !DILocation(line: 92, column: 5, scope: !1485)
!1563 = !DILocalVariable(name: "ans", scope: !1485, file: !3, line: 93, type: !6)
!1564 = !DILocation(line: 93, column: 9, scope: !1485)
!1565 = !DILocation(line: 94, column: 12, scope: !1485)
!1566 = !DILocation(line: 94, column: 25, scope: !1485)
!1567 = !DILocation(line: 94, column: 23, scope: !1485)
!1568 = !DILocation(line: 94, column: 38, scope: !1485)
!1569 = !DILocation(line: 94, column: 36, scope: !1485)
!1570 = !DILocation(line: 94, column: 51, scope: !1485)
!1571 = !DILocation(line: 94, column: 49, scope: !1485)
!1572 = !DILocation(line: 94, column: 9, scope: !1485)
!1573 = !DILocation(line: 95, column: 5, scope: !1485)
!1574 = !DILocation(line: 95, column: 12, scope: !1485)
!1575 = !DILocation(line: 95, column: 16, scope: !1485)
!1576 = !DILocation(line: 95, column: 14, scope: !1485)
!1577 = !DILocation(line: 95, column: 26, scope: !1485)
!1578 = !DILocation(line: 95, column: 31, scope: !1485)
!1579 = !DILocation(line: 95, column: 23, scope: !1485)
!1580 = distinct !{!1580, !1573, !1581, !1332}
!1581 = !DILocation(line: 95, column: 33, scope: !1485)
!1582 = !DILocalVariable(name: "end", scope: !1485, file: !3, line: 96, type: !230)
!1583 = !DILocation(line: 96, column: 13, scope: !1485)
!1584 = !DILocation(line: 96, column: 19, scope: !1485)
!1585 = !DILocation(line: 97, column: 59, scope: !1485)
!1586 = !DILocation(line: 97, column: 65, scope: !1485)
!1587 = !DILocation(line: 97, column: 63, scope: !1485)
!1588 = !DILocation(line: 97, column: 58, scope: !1485)
!1589 = !DILocation(line: 97, column: 71, scope: !1485)
!1590 = !DILocation(line: 97, column: 77, scope: !1485)
!1591 = !DILocation(line: 97, column: 5, scope: !1485)
!1592 = !DILocation(line: 98, column: 12, scope: !1485)
!1593 = !DILocation(line: 98, column: 5, scope: !1485)
!1594 = distinct !DISubprogram(name: "main", scope: !3, file: !3, line: 103, type: !124, scopeLine: 103, flags: DIFlagPrototyped, spFlags: DISPFlagDefinition, unit: !13, retainedNodes: !1296)
!1595 = !DILocalVariable(name: "v1", scope: !1594, file: !3, line: 104, type: !1596)
!1596 = !DICompositeType(tag: DW_TAG_array_type, baseType: !6, size: 6400000, elements: !1597)
!1597 = !{!1598}
!1598 = !DISubrange(count: 200000)
!1599 = !DILocation(line: 104, column: 9, scope: !1594)
!1600 = !DILocation(line: 110, column: 15, scope: !1594)
!1601 = !DILocation(line: 110, column: 5, scope: !1594)
!1602 = !DILocation(line: 112, column: 18, scope: !1594)
!1603 = !DILocation(line: 112, column: 5, scope: !1594)
!1604 = !DILocation(line: 115, column: 19, scope: !1594)
!1605 = !DILocation(line: 115, column: 5, scope: !1594)
!1606 = !DILocation(line: 117, column: 22, scope: !1594)
!1607 = !DILocation(line: 117, column: 5, scope: !1594)
!1608 = !DILocation(line: 119, column: 1, scope: !1594)
